

Microchip MPLAB XC8 Assembler V2.45 build 20230818022343 
                                                                                               Mon Dec 04 15:59:17 2023

Microchip MPLAB XC8 C Compiler v2.45 (Free license) build 20230818022343 Og1 
     1                           	processor	16F877A
     2                           	pagewidth 120
     3                           	opt	flic
     4                           	psect	idataBANK0,global,class=CODE,delta=2,noexec
     5                           	psect	idataBANK1,global,class=CODE,delta=2,noexec
     6                           	psect	strings,global,class=STRING,delta=2,noexec
     7                           	psect	cinit,global,class=CODE,merge=1,delta=2
     8                           	psect	bssBANK0,global,class=BANK0,space=1,delta=1,noexec
     9                           	psect	dataBANK0,global,class=BANK0,space=1,delta=1,noexec
    10                           	psect	bssBANK1,global,class=BANK1,space=1,delta=1,noexec
    11                           	psect	dataBANK1,global,class=BANK1,space=1,delta=1,noexec
    12                           	psect	inittext,global,class=CODE,delta=2
    13                           	psect	cstackBANK1,global,class=BANK1,space=1,delta=1,noexec
    14                           	psect	cstackCOMMON,global,class=COMMON,space=1,delta=1,noexec
    15                           	psect	cstackBANK0,global,class=BANK0,space=1,delta=1,noexec
    16                           	psect	maintext,global,class=CODE,split=1,delta=2
    17                           	psect	text1,local,class=CODE,merge=1,delta=2,group=1
    18                           	psect	text2,local,class=CODE,merge=1,delta=2,group=1
    19                           	psect	text3,local,class=CODE,merge=1,delta=2
    20                           	psect	text4,local,class=CODE,merge=1,delta=2
    21                           	psect	text5,local,class=CODE,merge=1,delta=2
    22                           	psect	text6,local,class=CODE,merge=1,delta=2
    23                           	psect	text7,local,class=CODE,merge=1,delta=2
    24                           	psect	text8,local,class=CODE,merge=1,delta=2
    25                           	psect	text9,local,class=CODE,merge=1,delta=2
    26                           	psect	intentry,global,class=CODE,delta=2
    27                           	psect	text10,local,class=CODE,merge=1,delta=2,group=1
    28                           	psect	text11,local,class=CODE,merge=1,delta=2,group=1
    29                           	psect	text12,local,class=CODE,merge=1,delta=2,group=1
    30                           	psect	text13,local,class=CODE,merge=1,delta=2,group=1
    31                           	psect	text14,local,class=CODE,merge=1,delta=2,group=1
    32                           	psect	text15,local,class=CODE,merge=1,delta=2
    33                           	psect	config,global,abs,ovrld,class=CONFIG,space=4,delta=2,noexec
    34                           	dabs	1,0x7E,2
    35     0000                     
    36                           ; Version 2.20
    37                           ; Generated 12/02/2020 GMT
    38                           ; 
    39                           ; Copyright © 2020, Microchip Technology Inc. and its subsidiaries ("Microchip")
    40                           ; All rights reserved.
    41                           ; 
    42                           ; This software is developed by Microchip Technology Inc. and its subsidiaries ("Microch
      +                          ip").
    43                           ; 
    44                           ; Redistribution and use in source and binary forms, with or without modification, are
    45                           ; permitted provided that the following conditions are met:
    46                           ; 
    47                           ;     1. Redistributions of source code must retain the above copyright notice, this lis
      +                          t of
    48                           ;        conditions and the following disclaimer.
    49                           ; 
    50                           ;     2. Redistributions in binary form must reproduce the above copyright notice, this 
      +                          list
    51                           ;        of conditions and the following disclaimer in the documentation and/or other
    52                           ;        materials provided with the distribution.
    53                           ; 
    54                           ;     3. Microchip's name may not be used to endorse or promote products derived from th
      +                          is
    55                           ;        software without specific prior written permission.
    56                           ; 
    57                           ; THIS SOFTWARE IS PROVIDED BY MICROCHIP "AS IS" AND ANY EXPRESS OR IMPLIED WARRANTIES,
    58                           ; INCLUDING, BUT NOT LIMITED TO, THE IMPLIED WARRANTIES OF MERCHANTABILITY AND FITNESS F
      +                          OR
    59                           ; PURPOSE ARE DISCLAIMED.  IN NO EVENT SHALL MICROCHIP BE LIABLE FOR ANY DIRECT, INDIREC
      +                          T,
    60                           ; INCIDENTAL, SPECIAL, EXEMPLARY, OR CONSEQUENTIAL DAMAGES (INCLUDING BUT NOT LIMITED TO
    61                           ; PROCUREMENT OF SUBSTITUTE GOODS OR SERVICES; LOSS OF USE, DATA OR PROFITS; OR BUSINESS
    62                           ; INTERRUPTION) HOWSOEVER CAUSED AND ON ANY THEORY OF LIABILITY, WHETHER IN CONTRACT, ST
      +                          RICT
    63                           ; LIABILITY, OR TORT (INCLUDING NEGLIGENCE OR OTHERWISE) ARISING IN ANY WAY OUT OF THE U
      +                          SE OF
    64                           ; THIS SOFTWARE, EVEN IF ADVISED OF THE POSSIBILITY OF SUCH DAMAGE.
    65                           ; 
    66                           ; 
    67                           ; Code-generator required, PIC16F877A Definitions
    68                           ; 
    69                           ; SFR Addresses
    70     0000                     	;# 
    71     0001                     	;# 
    72     0002                     	;# 
    73     0003                     	;# 
    74     0004                     	;# 
    75     0005                     	;# 
    76     0006                     	;# 
    77     0007                     	;# 
    78     0008                     	;# 
    79     0009                     	;# 
    80     000A                     	;# 
    81     000B                     	;# 
    82     000C                     	;# 
    83     000D                     	;# 
    84     000E                     	;# 
    85     000E                     	;# 
    86     000F                     	;# 
    87     0010                     	;# 
    88     0011                     	;# 
    89     0012                     	;# 
    90     0013                     	;# 
    91     0014                     	;# 
    92     0015                     	;# 
    93     0015                     	;# 
    94     0016                     	;# 
    95     0017                     	;# 
    96     0018                     	;# 
    97     0019                     	;# 
    98     001A                     	;# 
    99     001B                     	;# 
   100     001B                     	;# 
   101     001C                     	;# 
   102     001D                     	;# 
   103     001E                     	;# 
   104     001F                     	;# 
   105     0081                     	;# 
   106     0085                     	;# 
   107     0086                     	;# 
   108     0087                     	;# 
   109     0088                     	;# 
   110     0089                     	;# 
   111     008C                     	;# 
   112     008D                     	;# 
   113     008E                     	;# 
   114     0091                     	;# 
   115     0092                     	;# 
   116     0093                     	;# 
   117     0094                     	;# 
   118     0098                     	;# 
   119     0099                     	;# 
   120     009C                     	;# 
   121     009D                     	;# 
   122     009E                     	;# 
   123     009F                     	;# 
   124     010C                     	;# 
   125     010D                     	;# 
   126     010E                     	;# 
   127     010F                     	;# 
   128     018C                     	;# 
   129     018D                     	;# 
   130     0000                     	;# 
   131     0001                     	;# 
   132     0002                     	;# 
   133     0003                     	;# 
   134     0004                     	;# 
   135     0005                     	;# 
   136     0006                     	;# 
   137     0007                     	;# 
   138     0008                     	;# 
   139     0009                     	;# 
   140     000A                     	;# 
   141     000B                     	;# 
   142     000C                     	;# 
   143     000D                     	;# 
   144     000E                     	;# 
   145     000E                     	;# 
   146     000F                     	;# 
   147     0010                     	;# 
   148     0011                     	;# 
   149     0012                     	;# 
   150     0013                     	;# 
   151     0014                     	;# 
   152     0015                     	;# 
   153     0015                     	;# 
   154     0016                     	;# 
   155     0017                     	;# 
   156     0018                     	;# 
   157     0019                     	;# 
   158     001A                     	;# 
   159     001B                     	;# 
   160     001B                     	;# 
   161     001C                     	;# 
   162     001D                     	;# 
   163     001E                     	;# 
   164     001F                     	;# 
   165     0081                     	;# 
   166     0085                     	;# 
   167     0086                     	;# 
   168     0087                     	;# 
   169     0088                     	;# 
   170     0089                     	;# 
   171     008C                     	;# 
   172     008D                     	;# 
   173     008E                     	;# 
   174     0091                     	;# 
   175     0092                     	;# 
   176     0093                     	;# 
   177     0094                     	;# 
   178     0098                     	;# 
   179     0099                     	;# 
   180     009C                     	;# 
   181     009D                     	;# 
   182     009E                     	;# 
   183     009F                     	;# 
   184     010C                     	;# 
   185     010D                     	;# 
   186     010E                     	;# 
   187     010F                     	;# 
   188     018C                     	;# 
   189     018D                     	;# 
   190     0000                     	;# 
   191     0001                     	;# 
   192     0002                     	;# 
   193     0003                     	;# 
   194     0004                     	;# 
   195     0005                     	;# 
   196     0006                     	;# 
   197     0007                     	;# 
   198     0008                     	;# 
   199     0009                     	;# 
   200     000A                     	;# 
   201     000B                     	;# 
   202     000C                     	;# 
   203     000D                     	;# 
   204     000E                     	;# 
   205     000E                     	;# 
   206     000F                     	;# 
   207     0010                     	;# 
   208     0011                     	;# 
   209     0012                     	;# 
   210     0013                     	;# 
   211     0014                     	;# 
   212     0015                     	;# 
   213     0015                     	;# 
   214     0016                     	;# 
   215     0017                     	;# 
   216     0018                     	;# 
   217     0019                     	;# 
   218     001A                     	;# 
   219     001B                     	;# 
   220     001B                     	;# 
   221     001C                     	;# 
   222     001D                     	;# 
   223     001E                     	;# 
   224     001F                     	;# 
   225     0081                     	;# 
   226     0085                     	;# 
   227     0086                     	;# 
   228     0087                     	;# 
   229     0088                     	;# 
   230     0089                     	;# 
   231     008C                     	;# 
   232     008D                     	;# 
   233     008E                     	;# 
   234     0091                     	;# 
   235     0092                     	;# 
   236     0093                     	;# 
   237     0094                     	;# 
   238     0098                     	;# 
   239     0099                     	;# 
   240     009C                     	;# 
   241     009D                     	;# 
   242     009E                     	;# 
   243     009F                     	;# 
   244     010C                     	;# 
   245     010D                     	;# 
   246     010E                     	;# 
   247     010F                     	;# 
   248     018C                     	;# 
   249     018D                     	;# 
   250                           
   251                           	psect	idataBANK0
   252     09F1                     __pidataBANK0:
   253                           
   254                           ;initializer for _SetMoist
   255     09F1  3455               	retlw	85
   256     09F2  3400               	retlw	0
   257                           
   258                           	psect	idataBANK1
   259     09F3                     __pidataBANK1:
   260                           
   261                           ;initializer for _lcd
   262     09F3  3407               	retlw	7
   263     09F4  3400               	retlw	0
   264     09F5  3411               	retlw	17
   265     09F6  3423               	retlw	35
   266     09F7  3435               	retlw	53
   267                           
   268                           ;initializer for _turnON
   269     09F8  3401               	retlw	1
   270     09F9  3400               	retlw	0
   271                           
   272                           ;initializer for _buffer
   273     09FA  3430               	retlw	48
   274     09FB  3430               	retlw	48
   275     0009                     _PORTE	set	9
   276     0006                     _PORTB	set	6
   277     0005                     _PORTA	set	5
   278     0008                     _PORTD	set	8
   279     0008                     _PORTDbits	set	8
   280     0007                     _PORTCbits	set	7
   281     0006                     _PORTBbits	set	6
   282     000B                     _INTCONbits	set	11
   283     001F                     _ADCON0bits	set	31
   284     001E                     _ADRESH	set	30
   285     001F                     _ADCON0	set	31
   286     0007                     _PORTC	set	7
   287     00FA                     _GO_nDONE	set	250
   288     0089                     _TRISE	set	137
   289     0085                     _TRISA	set	133
   290     0087                     _TRISC	set	135
   291     0088                     _TRISD	set	136
   292     0086                     _TRISB	set	134
   293     0081                     _OPTION_REG	set	129
   294     009F                     _ADCON1bits	set	159
   295     009E                     _ADRESL	set	158
   296                           
   297                           	psect	strings
   298     0800                     __pstrings:
   299     0800                     stringtab:
   300     0800                     __stringtab:
   301     0800                     stringcode:	
   302                           ;	String table - string pointers are 1 byte each
   303                           
   304     0800                     stringdir:
   305     0800  3008               	movlw	high stringdir
   306     0801  008A               	movwf	10
   307     0802  0804               	movf	4,w
   308     0803  0A84               	incf	4,f
   309     0804  0782               	addwf	2,f
   310     0805                     __stringbase:
   311     0805  3400               	retlw	0
   312     0806                     __end_of__stringtab:
   313     0806                     STR_2:
   314     0806  344D               	retlw	77	;'M'
   315     0807  346F               	retlw	111	;'o'
   316     0808  3469               	retlw	105	;'i'
   317     0809  3473               	retlw	115	;'s'
   318     080A  3474               	retlw	116	;'t'
   319     080B  3475               	retlw	117	;'u'
   320     080C  3472               	retlw	114	;'r'
   321     080D  3465               	retlw	101	;'e'
   322     080E  342E               	retlw	46	;'.'
   323     080F  342E               	retlw	46	;'.'
   324     0810  342E               	retlw	46	;'.'
   325     0811  3400               	retlw	0
   326     0812                     STR_1:
   327     0812  3443               	retlw	67	;'C'
   328     0813  3461               	retlw	97	;'a'
   329     0814  346C               	retlw	108	;'l'
   330     0815  3463               	retlw	99	;'c'
   331     0816  3475               	retlw	117	;'u'
   332     0817  346C               	retlw	108	;'l'
   333     0818  3461               	retlw	97	;'a'
   334     0819  3474               	retlw	116	;'t'
   335     081A  3469               	retlw	105	;'i'
   336     081B  346E               	retlw	110	;'n'
   337     081C  3467               	retlw	103	;'g'
   338     081D  3400               	retlw	0
   339     081E                     STR_3:
   340     081E  344D               	retlw	77	;'M'
   341     081F  346F               	retlw	111	;'o'
   342     0820  3469               	retlw	105	;'i'
   343     0821  3473               	retlw	115	;'s'
   344     0822  3474               	retlw	116	;'t'
   345     0823  3475               	retlw	117	;'u'
   346     0824  3472               	retlw	114	;'r'
   347     0825  3465               	retlw	101	;'e'
   348     0826  343A               	retlw	58	;':'
   349     0827  3400               	retlw	0
   350                           
   351                           	psect	cinit
   352     0013                     start_initialization:	
   353                           ; #config settings
   354                           
   355     0013                     __initialization:
   356                           
   357                           ; Initialize objects allocated to BANK1
   358     0013  1383               	bcf	3,7	;select IRP bank0
   359     0014  30BC               	movlw	low (__pdataBANK1+9)
   360     0015  00FD               	movwf	btemp+-1
   361     0016  3009               	movlw	high __pidataBANK1
   362     0017  00FE               	movwf	btemp
   363     0018  30F3               	movlw	low __pidataBANK1
   364     0019  00FF               	movwf	btemp+1
   365     001A  30B3               	movlw	low __pdataBANK1
   366     001B  0084               	movwf	4
   367     001C  120A  118A  27F0  120A  118A  	fcall	init_ram0
   368                           
   369                           ; Initialize objects allocated to BANK0
   370     0021  120A  158A  21F1  120A  118A  	fcall	__pidataBANK0	;fetch initializer
   371     0026  00E8               	movwf	__pdataBANK0& (0+127)
   372     0027  120A  158A  21F2  120A  118A  	fcall	__pidataBANK0+1	;fetch initializer
   373     002C  00E9               	movwf	(__pdataBANK0+1)& (0+127)
   374                           
   375                           ; Clear objects allocated to BANK1
   376     002D  1683               	bsf	3,5	;RP0=1, select bank1
   377     002E  1303               	bcf	3,6	;RP1=0, select bank1
   378     002F  01BC               	clrf	__pbssBANK1& (0+127)
   379     0030  01BD               	clrf	(__pbssBANK1+1)& (0+127)
   380     0031  01BE               	clrf	(__pbssBANK1+2)& (0+127)
   381     0032  01BF               	clrf	(__pbssBANK1+3)& (0+127)
   382     0033  01C0               	clrf	(__pbssBANK1+4)& (0+127)
   383     0034  01C1               	clrf	(__pbssBANK1+5)& (0+127)
   384                           
   385                           ; Clear objects allocated to BANK0
   386     0035  1283               	bcf	3,5	;RP0=0, select bank0
   387     0036  1303               	bcf	3,6	;RP1=0, select bank0
   388     0037  01E2               	clrf	__pbssBANK0& (0+127)
   389     0038  01E3               	clrf	(__pbssBANK0+1)& (0+127)
   390     0039  01E4               	clrf	(__pbssBANK0+2)& (0+127)
   391     003A  01E5               	clrf	(__pbssBANK0+3)& (0+127)
   392     003B  01E6               	clrf	(__pbssBANK0+4)& (0+127)
   393     003C  01E7               	clrf	(__pbssBANK0+5)& (0+127)
   394     003D                     end_of_initialization:	
   395                           ;End of C runtime variable initialization code
   396                           
   397     003D                     __end_of__initialization:
   398     003D  0183               	clrf	3
   399     003E  120A  118A  2B86   	ljmp	_main	;jump to C main() function
   400                           
   401                           	psect	bssBANK0
   402     0062                     __pbssBANK0:
   403     0062                     _getMoist:
   404     0062                     	ds	2
   405     0064                     _screenCounter:
   406     0064                     	ds	2
   407     0066                     _sensingCounter:
   408     0066                     	ds	2
   409                           
   410                           	psect	dataBANK0
   411     0068                     __pdataBANK0:
   412     0068                     _SetMoist:
   413     0068                     	ds	2
   414                           
   415                           	psect	bssBANK1
   416     00BC                     __pbssBANK1:
   417     00BC                     _cset:
   418     00BC                     	ds	2
   419     00BE                     _SetMoistL:
   420     00BE                     	ds	2
   421     00C0                     _SetMoistR:
   422     00C0                     	ds	2
   423                           
   424                           	psect	dataBANK1
   425     00B3                     __pdataBANK1:
   426     00B3                     _lcd:
   427     00B3                     	ds	5
   428     00B8                     _turnON:
   429     00B8                     	ds	2
   430     00BA                     _buffer:
   431     00BA                     	ds	2
   432                           
   433                           	psect	inittext
   434     07EC                     init_fetch0:	
   435                           ;	Called with low address in FSR and high address in W
   436                           
   437     07EC  087E               	movf	btemp,w
   438     07ED  008A               	movwf	10
   439     07EE  087F               	movf	btemp+1,w
   440     07EF  0082               	movwf	2
   441     07F0                     init_ram0:	
   442                           ;Called with:
   443                           ;	high address of idata address in btemp 
   444                           ;	low address of idata address in btemp+1 
   445                           ;	low address of data in FSR
   446                           ;	high address + 1 of data in btemp-1
   447                           
   448     07F0  120A  118A  27EC  120A  118A  	fcall	init_fetch0
   449     07F5  0080               	movwf	0
   450     07F6  0A84               	incf	4,f
   451     07F7  0804               	movf	4,w
   452     07F8  067D               	xorwf	btemp+-1,w
   453     07F9  1903               	btfsc	3,2
   454     07FA  3400               	retlw	0
   455     07FB  0AFF               	incf	btemp+1,f
   456     07FC  1903               	btfsc	3,2
   457     07FD  0AFE               	incf	btemp,f
   458     07FE  2FF0               	goto	init_ram0
   459                           
   460                           	psect	cstackBANK1
   461     00A0                     __pcstackBANK1:
   462     00A0                     ??_ADC_Init:
   463     00A0                     ??_LCD_Out:	
   464                           ; 1 bytes @ 0x0
   465                           
   466     00A0                     ?___awdiv:	
   467                           ; 1 bytes @ 0x0
   468                           
   469     00A0                     ___awdiv@divisor:	
   470                           ; 2 bytes @ 0x0
   471                           
   472                           
   473                           ; 2 bytes @ 0x0
   474     00A0                     	ds	2
   475     00A2                     LCD_Out@c:
   476     00A2                     ___awdiv@dividend:	
   477                           ; 1 bytes @ 0x2
   478                           
   479                           
   480                           ; 2 bytes @ 0x2
   481     00A2                     	ds	1
   482     00A3                     ??_LCD_Write:
   483     00A3                     ??_LCD_putc:	
   484                           ; 1 bytes @ 0x3
   485                           
   486                           
   487                           ; 1 bytes @ 0x3
   488     00A3                     	ds	1
   489     00A4                     ??___awdiv:
   490     00A4                     ___awdiv@counter:	
   491                           ; 1 bytes @ 0x4
   492                           
   493                           
   494                           ; 1 bytes @ 0x4
   495     00A4                     	ds	1
   496     00A5                     LCD_Write@c:
   497     00A5                     LCD_putc@c:	
   498                           ; 1 bytes @ 0x5
   499                           
   500     00A5                     ___awdiv@sign:	
   501                           ; 1 bytes @ 0x5
   502                           
   503                           
   504                           ; 1 bytes @ 0x5
   505     00A5                     	ds	1
   506     00A6                     ?_LCD_Init:
   507     00A6                     ??_LCD_putrs:	
   508                           ; 1 bytes @ 0x6
   509                           
   510     00A6                     LCD_putrs@i:	
   511                           ; 1 bytes @ 0x6
   512                           
   513     00A6                     ___awdiv@quotient:	
   514                           ; 2 bytes @ 0x6
   515                           
   516     00A6                     LCD_Init@display:	
   517                           ; 2 bytes @ 0x6
   518                           
   519                           
   520                           ; 5 bytes @ 0x6
   521     00A6                     	ds	2
   522     00A8                     ?___awmod:
   523     00A8                     LCD_putrs@a:	
   524                           ; 2 bytes @ 0x8
   525                           
   526     00A8                     ___awmod@divisor:	
   527                           ; 1 bytes @ 0x8
   528                           
   529                           
   530                           ; 2 bytes @ 0x8
   531     00A8                     	ds	2
   532     00AA                     ___awmod@dividend:
   533                           
   534                           ; 2 bytes @ 0xA
   535     00AA                     	ds	1
   536     00AB                     ??_LCD_Init:
   537                           
   538                           ; 1 bytes @ 0xB
   539     00AB                     	ds	1
   540     00AC                     ??___awmod:
   541     00AC                     ___awmod@counter:	
   542                           ; 1 bytes @ 0xC
   543                           
   544                           
   545                           ; 1 bytes @ 0xC
   546     00AC                     	ds	1
   547     00AD                     LCD_Init@cmd:
   548     00AD                     ___awmod@sign:	
   549                           ; 1 bytes @ 0xD
   550                           
   551                           
   552                           ; 1 bytes @ 0xD
   553     00AD                     	ds	1
   554     00AE                     ??_main:
   555                           
   556                           ; 1 bytes @ 0xE
   557     00AE                     	ds	3
   558     00B1                     main@cmd:
   559                           
   560                           ; 1 bytes @ 0x11
   561     00B1                     	ds	1
   562     00B2                     main@cmd_320:
   563                           
   564                           ; 1 bytes @ 0x12
   565     00B2                     	ds	1
   566                           
   567                           	psect	cstackCOMMON
   568     0070                     __pcstackCOMMON:
   569     0070                     ?_LCD_Write:
   570     0070                     ?_LCD_putrs:	
   571                           ; 1 bytes @ 0x0
   572                           
   573     0070                     ?_LCD_putc:	
   574                           ; 1 bytes @ 0x0
   575                           
   576     0070                     ?_ADC_Init:	
   577                           ; 1 bytes @ 0x0
   578                           
   579     0070                     ?_InterrupT:	
   580                           ; 1 bytes @ 0x0
   581                           
   582     0070                     ?_main:	
   583                           ; 1 bytes @ 0x0
   584                           
   585     0070                     ?_LCD_Out:	
   586                           ; 1 bytes @ 0x0
   587                           
   588     0070                     ?__Umul8_16:	
   589                           ; 1 bytes @ 0x0
   590                           
   591     0070                     ?_ADC_Read:	
   592                           ; 2 bytes @ 0x0
   593                           
   594     0070                     ?___xxtofl:	
   595                           ; 2 bytes @ 0x0
   596                           
   597     0070                     __Umul8_16@multiplicand:	
   598                           ; 4 bytes @ 0x0
   599                           
   600     0070                     ___xxtofl@val:	
   601                           ; 1 bytes @ 0x0
   602                           
   603                           
   604                           ; 4 bytes @ 0x0
   605     0070                     	ds	2
   606     0072                     ??__Umul8_16:
   607     0072                     ??_ADC_Read:	
   608                           ; 1 bytes @ 0x2
   609                           
   610                           
   611                           ; 1 bytes @ 0x2
   612     0072                     	ds	2
   613     0074                     ??___xxtofl:
   614     0074                     ADC_Read@channel:	
   615                           ; 1 bytes @ 0x4
   616                           
   617     0074                     __Umul8_16@product:	
   618                           ; 1 bytes @ 0x4
   619                           
   620                           
   621                           ; 2 bytes @ 0x4
   622     0074                     	ds	2
   623     0076                     __Umul8_16@word_mpld:
   624                           
   625                           ; 2 bytes @ 0x6
   626     0076                     	ds	2
   627     0078                     __Umul8_16@multiplier:
   628     0078                     ___xxtofl@sign:	
   629                           ; 1 bytes @ 0x8
   630                           
   631                           
   632                           ; 1 bytes @ 0x8
   633     0078                     	ds	1
   634     0079                     ___xxtofl@exp:
   635                           
   636                           ; 1 bytes @ 0x9
   637     0079                     	ds	1
   638     007A                     ___xxtofl@arg:
   639                           
   640                           ; 4 bytes @ 0xA
   641     007A                     	ds	4
   642                           
   643                           	psect	cstackBANK0
   644     0020                     __pcstackBANK0:
   645     0020                     ?___fldiv:
   646     0020                     ___fldiv@a:	
   647                           ; 4 bytes @ 0x0
   648                           
   649                           
   650                           ; 4 bytes @ 0x0
   651     0020                     	ds	4
   652     0024                     ___fldiv@b:
   653                           
   654                           ; 4 bytes @ 0x4
   655     0024                     	ds	4
   656     0028                     ??___fldiv:
   657                           
   658                           ; 1 bytes @ 0x8
   659     0028                     	ds	5
   660     002D                     ___fldiv@rem:
   661                           
   662                           ; 4 bytes @ 0xD
   663     002D                     	ds	4
   664     0031                     ___fldiv@sign:
   665                           
   666                           ; 1 bytes @ 0x11
   667     0031                     	ds	1
   668     0032                     ___fldiv@new_exp:
   669                           
   670                           ; 2 bytes @ 0x12
   671     0032                     	ds	2
   672     0034                     ___fldiv@grs:
   673                           
   674                           ; 4 bytes @ 0x14
   675     0034                     	ds	4
   676     0038                     ___fldiv@bexp:
   677                           
   678                           ; 1 bytes @ 0x18
   679     0038                     	ds	1
   680     0039                     ___fldiv@aexp:
   681                           
   682                           ; 1 bytes @ 0x19
   683     0039                     	ds	1
   684     003A                     ?___flmul:
   685     003A                     ___flmul@b:	
   686                           ; 4 bytes @ 0x1A
   687                           
   688                           
   689                           ; 4 bytes @ 0x1A
   690     003A                     	ds	4
   691     003E                     ___flmul@a:
   692                           
   693                           ; 4 bytes @ 0x1E
   694     003E                     	ds	4
   695     0042                     ??___flmul:
   696                           
   697                           ; 1 bytes @ 0x22
   698     0042                     	ds	5
   699     0047                     ___flmul@sign:
   700                           
   701                           ; 1 bytes @ 0x27
   702     0047                     	ds	1
   703     0048                     ___flmul@grs:
   704                           
   705                           ; 4 bytes @ 0x28
   706     0048                     	ds	4
   707     004C                     ___flmul@aexp:
   708                           
   709                           ; 1 bytes @ 0x2C
   710     004C                     	ds	1
   711     004D                     ___flmul@bexp:
   712                           
   713                           ; 1 bytes @ 0x2D
   714     004D                     	ds	1
   715     004E                     ___flmul@prod:
   716                           
   717                           ; 4 bytes @ 0x2E
   718     004E                     	ds	4
   719     0052                     ___flmul@temp:
   720                           
   721                           ; 2 bytes @ 0x32
   722     0052                     	ds	2
   723     0054                     ?___fltol:
   724     0054                     ___fltol@f1:	
   725                           ; 4 bytes @ 0x34
   726                           
   727                           
   728                           ; 4 bytes @ 0x34
   729     0054                     	ds	4
   730     0058                     ??___fltol:
   731                           
   732                           ; 1 bytes @ 0x38
   733     0058                     	ds	4
   734     005C                     ___fltol@sign1:
   735                           
   736                           ; 1 bytes @ 0x3C
   737     005C                     	ds	1
   738     005D                     ___fltol@exp1:
   739                           
   740                           ; 1 bytes @ 0x3D
   741     005D                     	ds	1
   742     005E                     ??_InterrupT:
   743                           
   744                           ; 1 bytes @ 0x3E
   745     005E                     	ds	4
   746                           
   747                           	psect	maintext
   748     0386                     __pmaintext:	
   749 ;;
   750 ;;Main: autosize = 0, tempsize = 3, incstack = 0, save=0
   751 ;;
   752 ;; *************** function _main *****************
   753 ;; Defined at:
   754 ;;		line 150 in file "main.c"
   755 ;; Parameters:    Size  Location     Type
   756 ;;		None
   757 ;; Auto vars:     Size  Location     Type
   758 ;;  cmd             1   18[BANK1 ] unsigned char 
   759 ;;  cmd             1   17[BANK1 ] unsigned char 
   760 ;; Return value:  Size  Location     Type
   761 ;;                  1    wreg      void 
   762 ;; Registers used:
   763 ;;		wreg, fsr0l, fsr0h, status,2, status,0, btemp+1, pclath, cstack
   764 ;; Tracked objects:
   765 ;;		On entry : B00/0
   766 ;;		On exit  : 0/0
   767 ;;		Unchanged: 0/0
   768 ;; Data sizes:     COMMON   BANK0   BANK1   BANK3   BANK2
   769 ;;      Params:         0       0       0       0       0
   770 ;;      Locals:         0       0       2       0       0
   771 ;;      Temps:          0       0       3       0       0
   772 ;;      Totals:         0       0       5       0       0
   773 ;;Total ram usage:        5 bytes
   774 ;; Hardware stack levels required when called: 6
   775 ;; This function calls:
   776 ;;		_ADC_Init
   777 ;;		_LCD_Init
   778 ;;		_LCD_Write
   779 ;;		_LCD_putc
   780 ;;		_LCD_putrs
   781 ;;		___awdiv
   782 ;;		___awmod
   783 ;; This function is called by:
   784 ;;		Startup code after reset
   785 ;; This function uses a non-reentrant model
   786 ;;
   787                           
   788     0386                     _main:	
   789                           ;psect for function _main
   790                           
   791     0386                     l2479:	
   792                           ;incstack = 0
   793                           ; Regs used in _main: [wreg-fsr0h+status,2+status,0+btemp+1+pclath+cstack]
   794                           
   795                           
   796                           ;main.c: 153:     INTCONbits.GIE=1;
   797     0386  178B               	bsf	11,7	;volatile
   798                           
   799                           ;main.c: 154:     INTCONbits.TMR0IE=1;
   800     0387  168B               	bsf	11,5	;volatile
   801                           
   802                           ;main.c: 155:     INTCONbits.RBIE=1;
   803     0388  158B               	bsf	11,3	;volatile
   804     0389                     l2481:
   805                           
   806                           ;main.c: 158:     OPTION_REG = 0b10000111;
   807     0389  3087               	movlw	135
   808     038A  1683               	bsf	3,5	;RP0=1, select bank1
   809     038B  1303               	bcf	3,6	;RP1=0, select bank1
   810     038C  0081               	movwf	1	;volatile
   811     038D                     l2483:
   812                           
   813                           ;main.c: 161:     ADC_Init();
   814     038D  120A  158A  21FC  120A  118A  	fcall	_ADC_Init
   815     0392                     l2485:
   816                           
   817                           ;main.c: 164:     TRISB= 0xFF;
   818     0392  30FF               	movlw	255
   819     0393  1683               	bsf	3,5	;RP0=1, select bank1
   820     0394  1303               	bcf	3,6	;RP1=0, select bank1
   821     0395  0086               	movwf	6	;volatile
   822     0396                     l2487:
   823                           
   824                           ;main.c: 165:     TRISD = 0x00;
   825     0396  0188               	clrf	8	;volatile
   826     0397                     l2489:
   827                           
   828                           ;main.c: 166:     TRISC = 0;
   829     0397  0187               	clrf	7	;volatile
   830     0398                     l2491:
   831                           
   832                           ;main.c: 167:     PORTCbits.RC0=0;
   833     0398  1283               	bcf	3,5	;RP0=0, select bank0
   834     0399  1303               	bcf	3,6	;RP1=0, select bank0
   835     039A  1007               	bcf	7,0	;volatile
   836     039B                     l2493:
   837                           
   838                           ;main.c: 168:     PORTDbits.RD7=1;
   839     039B  1788               	bsf	8,7	;volatile
   840     039C                     l2495:
   841                           
   842                           ;main.c: 169:     PORTCbits.RC7= 1;
   843     039C  1787               	bsf	7,7	;volatile
   844     039D                     l2497:
   845                           
   846                           ;main.c: 170:     TRISA = 1;
   847     039D  3001               	movlw	1
   848     039E  1683               	bsf	3,5	;RP0=1, select bank1
   849     039F  1303               	bcf	3,6	;RP1=0, select bank1
   850     03A0  0085               	movwf	5	;volatile
   851     03A1                     l2499:
   852                           
   853                           ;main.c: 172:     LCD_Init(lcd);
   854     03A1  30A6               	movlw	LCD_Init@display& (0+255)
   855     03A2  0084               	movwf	4
   856     03A3  0833               	movf	_lcd^(0+128),w
   857     03A4  1383               	bcf	3,7	;select IRP bank1
   858     03A5  0080               	movwf	0
   859     03A6  0A84               	incf	4,f
   860     03A7  0834               	movf	(_lcd^(0+128)+1),w
   861     03A8  0080               	movwf	0
   862     03A9  0A84               	incf	4,f
   863     03AA  0835               	movf	(_lcd^(0+128)+2),w
   864     03AB  0080               	movwf	0
   865     03AC  0A84               	incf	4,f
   866     03AD  0836               	movf	(_lcd^(0+128)+3),w
   867     03AE  0080               	movwf	0
   868     03AF  0A84               	incf	4,f
   869     03B0  0837               	movf	(_lcd^(0+128)+4),w
   870     03B1  0080               	movwf	0
   871     03B2  120A  158A  2555  120A  118A  	fcall	_LCD_Init
   872     03B7                     l2501:
   873     03B7  3008               	movlw	8
   874     03B8  120A  158A  22BD  120A  118A  	fcall	_LCD_Write
   875     03BD                     l2503:
   876     03BD  3000               	movlw	0
   877     03BE  120A  158A  22BD  120A  118A  	fcall	_LCD_Write
   878     03C3                     l112:
   879                           
   880                           ;main.c: 174:     LCD_putrs("Calculating");
   881     03C3  300D               	movlw	(low ((STR_1-__stringbase)| (0+32768)))& (0+255)
   882     03C4  120A  158A  2239  120A  118A  	fcall	_LCD_putrs
   883     03C9                     l2513:
   884     03C9  300C               	movlw	12
   885     03CA  120A  158A  22BD  120A  118A  	fcall	_LCD_Write
   886     03CF  3000               	movlw	0
   887     03D0  120A  158A  22BD  120A  118A  	fcall	_LCD_Write
   888     03D5                     l129:
   889                           
   890                           ;main.c: 176:     LCD_putrs("Moisture...");
   891     03D5  3001               	movlw	(low ((STR_2-__stringbase)| (0+32768)))& (0+255)
   892     03D6  120A  158A  2239  120A  118A  	fcall	_LCD_putrs
   893     03DB                     l2519:
   894                           
   895                           ;main.c: 177:     _delay((unsigned long)((1000)*(8000000/4000.0)));
   896     03DB  300B               	movlw	11
   897     03DC  1683               	bsf	3,5	;RP0=1, select bank1
   898     03DD  1303               	bcf	3,6	;RP1=0, select bank1
   899     03DE  00B0               	movwf	(??_main^(0+128)+2)
   900     03DF  3026               	movlw	38
   901     03E0  00AF               	movwf	(??_main^(0+128)+1)
   902     03E1  305D               	movlw	93
   903     03E2  00AE               	movwf	??_main^(0+128)
   904     03E3                     u3237:
   905     03E3  0BAE               	decfsz	??_main^(0+128),f
   906     03E4  2BE3               	goto	u3237
   907     03E5  0BAF               	decfsz	(??_main^(0+128)+1),f
   908     03E6  2BE3               	goto	u3237
   909     03E7  0BB0               	decfsz	(??_main^(0+128)+2),f
   910     03E8  2BE3               	goto	u3237
   911     03E9                     l2521:
   912     03E9  3000               	movlw	0
   913     03EA  120A  158A  22BD  120A  118A  	fcall	_LCD_Write
   914     03EF                     l2523:
   915     03EF  3001               	movlw	1
   916     03F0  120A  158A  22BD  120A  118A  	fcall	_LCD_Write
   917     03F5                     l2525:
   918     03F5  3008               	movlw	8
   919     03F6  120A  158A  22BD  120A  118A  	fcall	_LCD_Write
   920     03FB                     l2527:
   921     03FB  3001               	movlw	1
   922     03FC  120A  158A  22BD  120A  118A  	fcall	_LCD_Write
   923     0401                     l148:
   924                           
   925                           ;main.c: 180:     LCD_putrs("Moisture:");
   926     0401  3019               	movlw	(low ((STR_3-__stringbase)| (0+32768)))& (0+255)
   927     0402  120A  158A  2239  120A  118A  	fcall	_LCD_putrs
   928     0407                     l2535:
   929                           
   930                           ;main.c: 183:     {;main.c: 184:         if(cset==0)
   931     0407  1683               	bsf	3,5	;RP0=1, select bank1
   932     0408  1303               	bcf	3,6	;RP1=0, select bank1
   933     0409  083C               	movf	_cset^(0+128),w
   934     040A  043D               	iorwf	(_cset+1)^(0+128),w
   935     040B  1D03               	btfss	3,2
   936     040C  2C0E               	goto	u3181
   937     040D  2C0F               	goto	u3180
   938     040E                     u3181:
   939     040E  2D08               	goto	l2591
   940     040F                     u3180:
   941     040F                     l2537:
   942                           
   943                           ;main.c: 185:         {;main.c: 187:             cset=1;
   944     040F  3001               	movlw	1
   945     0410  00BC               	movwf	_cset^(0+128)
   946     0411  3000               	movlw	0
   947     0412  00BD               	movwf	(_cset^(0+128)+1)
   948     0413                     l2539:
   949                           
   950                           ;main.c: 188:             SetMoistR= SetMoist % 10;
   951     0413  300A               	movlw	10
   952     0414  00A8               	movwf	___awmod@divisor^(0+128)
   953     0415  3000               	movlw	0
   954     0416  00A9               	movwf	(___awmod@divisor^(0+128)+1)
   955     0417  1283               	bcf	3,5	;RP0=0, select bank0
   956     0418  1303               	bcf	3,6	;RP1=0, select bank0
   957     0419  0869               	movf	_SetMoist+1,w
   958     041A  1683               	bsf	3,5	;RP0=1, select bank1
   959     041B  1303               	bcf	3,6	;RP1=0, select bank1
   960     041C  00AB               	movwf	(___awmod@dividend+1)^(0+128)
   961     041D  1283               	bcf	3,5	;RP0=0, select bank0
   962     041E  1303               	bcf	3,6	;RP1=0, select bank0
   963     041F  0868               	movf	_SetMoist,w
   964     0420  1683               	bsf	3,5	;RP0=1, select bank1
   965     0421  1303               	bcf	3,6	;RP1=0, select bank1
   966     0422  00AA               	movwf	___awmod@dividend^(0+128)
   967     0423  120A  158A  2262  120A  118A  	fcall	___awmod
   968     0428  1683               	bsf	3,5	;RP0=1, select bank1
   969     0429  1303               	bcf	3,6	;RP1=0, select bank1
   970     042A  0829               	movf	(?___awmod+1)^(0+128),w
   971     042B  00C1               	movwf	(_SetMoistR+1)^(0+128)
   972     042C  0828               	movf	?___awmod^(0+128),w
   973     042D  00C0               	movwf	_SetMoistR^(0+128)
   974                           
   975                           ;main.c: 189:             switch (SetMoistR)
   976     042E  2C61               	goto	l2563
   977     042F                     l2541:
   978     042F  303F               	movlw	63
   979     0430  00C0               	movwf	_SetMoistR^(0+128)
   980     0431  3000               	movlw	0
   981     0432  00C1               	movwf	(_SetMoistR^(0+128)+1)
   982     0433  2C86               	goto	l2565
   983     0434                     l2543:
   984     0434  3006               	movlw	6
   985     0435  00C0               	movwf	_SetMoistR^(0+128)
   986     0436  3000               	movlw	0
   987     0437  00C1               	movwf	(_SetMoistR^(0+128)+1)
   988     0438  2C86               	goto	l2565
   989     0439                     l2545:
   990     0439  305B               	movlw	91
   991     043A  00C0               	movwf	_SetMoistR^(0+128)
   992     043B  3000               	movlw	0
   993     043C  00C1               	movwf	(_SetMoistR^(0+128)+1)
   994     043D  2C86               	goto	l2565
   995     043E                     l2547:
   996     043E  304F               	movlw	79
   997     043F  00C0               	movwf	_SetMoistR^(0+128)
   998     0440  3000               	movlw	0
   999     0441  00C1               	movwf	(_SetMoistR^(0+128)+1)
  1000     0442  2C86               	goto	l2565
  1001     0443                     l2549:
  1002     0443  3066               	movlw	102
  1003     0444  00C0               	movwf	_SetMoistR^(0+128)
  1004     0445  3000               	movlw	0
  1005     0446  00C1               	movwf	(_SetMoistR^(0+128)+1)
  1006     0447  2C86               	goto	l2565
  1007     0448                     l2551:
  1008     0448  306D               	movlw	109
  1009     0449  00C0               	movwf	_SetMoistR^(0+128)
  1010     044A  3000               	movlw	0
  1011     044B  00C1               	movwf	(_SetMoistR^(0+128)+1)
  1012     044C  2C86               	goto	l2565
  1013     044D                     l2553:
  1014     044D  307D               	movlw	125
  1015     044E  00C0               	movwf	_SetMoistR^(0+128)
  1016     044F  3000               	movlw	0
  1017     0450  00C1               	movwf	(_SetMoistR^(0+128)+1)
  1018     0451  2C86               	goto	l2565
  1019     0452                     l2555:
  1020     0452  3007               	movlw	7
  1021     0453  00C0               	movwf	_SetMoistR^(0+128)
  1022     0454  3000               	movlw	0
  1023     0455  00C1               	movwf	(_SetMoistR^(0+128)+1)
  1024     0456  2C86               	goto	l2565
  1025     0457                     l2557:
  1026     0457  307F               	movlw	127
  1027     0458  00C0               	movwf	_SetMoistR^(0+128)
  1028     0459  3000               	movlw	0
  1029     045A  00C1               	movwf	(_SetMoistR^(0+128)+1)
  1030     045B  2C86               	goto	l2565
  1031     045C                     l2559:
  1032     045C  306F               	movlw	111
  1033     045D  00C0               	movwf	_SetMoistR^(0+128)
  1034     045E  3000               	movlw	0
  1035     045F  00C1               	movwf	(_SetMoistR^(0+128)+1)
  1036     0460  2C86               	goto	l2565
  1037     0461                     l2563:
  1038                           
  1039                           ; Switch on 2 bytes has been partitioned into a top level switch of size 1, and 1 sub-sw
      +                          itches
  1040                           ; Switch size 1, requested type "simple"
  1041                           ; Number of cases is 1, Range of values is 0 to 0
  1042                           ; switch strategies available:
  1043                           ; Name         Instructions Cycles
  1044                           ; simple_byte            4     3 (average)
  1045                           ; direct_byte           11     8 (fixed)
  1046                           ; jumptable            260     6 (fixed)
  1047                           ;	Chosen strategy is simple_byte
  1048     0461  0841               	movf	(_SetMoistR+1)^(0+128),w
  1049     0462  3A00               	xorlw	0	; case 0
  1050     0463  1903               	skipnz
  1051     0464  2C66               	goto	l2731
  1052     0465  2C86               	goto	l2565
  1053     0466                     l2731:
  1054                           
  1055                           ; Switch size 1, requested type "simple"
  1056                           ; Number of cases is 10, Range of values is 0 to 9
  1057                           ; switch strategies available:
  1058                           ; Name         Instructions Cycles
  1059                           ; simple_byte           31    16 (average)
  1060                           ; direct_byte           38     8 (fixed)
  1061                           ; jumptable            260     6 (fixed)
  1062                           ;	Chosen strategy is simple_byte
  1063     0466  0840               	movf	_SetMoistR^(0+128),w
  1064     0467  3A00               	xorlw	0	; case 0
  1065     0468  1903               	skipnz
  1066     0469  2C2F               	goto	l2541
  1067     046A  3A01               	xorlw	1	; case 1
  1068     046B  1903               	skipnz
  1069     046C  2C34               	goto	l2543
  1070     046D  3A03               	xorlw	3	; case 2
  1071     046E  1903               	skipnz
  1072     046F  2C39               	goto	l2545
  1073     0470  3A01               	xorlw	1	; case 3
  1074     0471  1903               	skipnz
  1075     0472  2C3E               	goto	l2547
  1076     0473  3A07               	xorlw	7	; case 4
  1077     0474  1903               	skipnz
  1078     0475  2C43               	goto	l2549
  1079     0476  3A01               	xorlw	1	; case 5
  1080     0477  1903               	skipnz
  1081     0478  2C48               	goto	l2551
  1082     0479  3A03               	xorlw	3	; case 6
  1083     047A  1903               	skipnz
  1084     047B  2C4D               	goto	l2553
  1085     047C  3A01               	xorlw	1	; case 7
  1086     047D  1903               	skipnz
  1087     047E  2C52               	goto	l2555
  1088     047F  3A0F               	xorlw	15	; case 8
  1089     0480  1903               	skipnz
  1090     0481  2C57               	goto	l2557
  1091     0482  3A01               	xorlw	1	; case 9
  1092     0483  1903               	skipnz
  1093     0484  2C5C               	goto	l2559
  1094     0485  2C86               	goto	l2565
  1095     0486                     l2565:
  1096                           
  1097                           ;main.c: 203:             SetMoistL= (SetMoist/10) % 10;
  1098     0486  300A               	movlw	10
  1099     0487  00A8               	movwf	___awmod@divisor^(0+128)
  1100     0488  3000               	movlw	0
  1101     0489  00A9               	movwf	(___awmod@divisor^(0+128)+1)
  1102     048A  300A               	movlw	10
  1103     048B  00A0               	movwf	___awdiv@divisor^(0+128)
  1104     048C  3000               	movlw	0
  1105     048D  00A1               	movwf	(___awdiv@divisor^(0+128)+1)
  1106     048E  1283               	bcf	3,5	;RP0=0, select bank0
  1107     048F  1303               	bcf	3,6	;RP1=0, select bank0
  1108     0490  0869               	movf	_SetMoist+1,w
  1109     0491  1683               	bsf	3,5	;RP0=1, select bank1
  1110     0492  1303               	bcf	3,6	;RP1=0, select bank1
  1111     0493  00A3               	movwf	(___awdiv@dividend+1)^(0+128)
  1112     0494  1283               	bcf	3,5	;RP0=0, select bank0
  1113     0495  1303               	bcf	3,6	;RP1=0, select bank0
  1114     0496  0868               	movf	_SetMoist,w
  1115     0497  1683               	bsf	3,5	;RP0=1, select bank1
  1116     0498  1303               	bcf	3,6	;RP1=0, select bank1
  1117     0499  00A2               	movwf	___awdiv@dividend^(0+128)
  1118     049A  120A  158A  231A  120A  118A  	fcall	___awdiv
  1119     049F  1683               	bsf	3,5	;RP0=1, select bank1
  1120     04A0  1303               	bcf	3,6	;RP1=0, select bank1
  1121     04A1  0821               	movf	(?___awdiv+1)^(0+128),w
  1122     04A2  00AB               	movwf	(___awmod@dividend+1)^(0+128)
  1123     04A3  0820               	movf	?___awdiv^(0+128),w
  1124     04A4  00AA               	movwf	___awmod@dividend^(0+128)
  1125     04A5  120A  158A  2262  120A  118A  	fcall	___awmod
  1126     04AA  1683               	bsf	3,5	;RP0=1, select bank1
  1127     04AB  1303               	bcf	3,6	;RP1=0, select bank1
  1128     04AC  0829               	movf	(?___awmod+1)^(0+128),w
  1129     04AD  00BF               	movwf	(_SetMoistL+1)^(0+128)
  1130     04AE  0828               	movf	?___awmod^(0+128),w
  1131     04AF  00BE               	movwf	_SetMoistL^(0+128)
  1132                           
  1133                           ;main.c: 204:             switch (SetMoistL)
  1134     04B0  2CE3               	goto	l2589
  1135     04B1                     l2567:
  1136     04B1  303F               	movlw	63
  1137     04B2  00BE               	movwf	_SetMoistL^(0+128)
  1138     04B3  3000               	movlw	0
  1139     04B4  00BF               	movwf	(_SetMoistL^(0+128)+1)
  1140     04B5  2D08               	goto	l2591
  1141     04B6                     l2569:
  1142     04B6  3006               	movlw	6
  1143     04B7  00BE               	movwf	_SetMoistL^(0+128)
  1144     04B8  3000               	movlw	0
  1145     04B9  00BF               	movwf	(_SetMoistL^(0+128)+1)
  1146     04BA  2D08               	goto	l2591
  1147     04BB                     l2571:
  1148     04BB  305B               	movlw	91
  1149     04BC  00BE               	movwf	_SetMoistL^(0+128)
  1150     04BD  3000               	movlw	0
  1151     04BE  00BF               	movwf	(_SetMoistL^(0+128)+1)
  1152     04BF  2D08               	goto	l2591
  1153     04C0                     l2573:
  1154     04C0  304F               	movlw	79
  1155     04C1  00BE               	movwf	_SetMoistL^(0+128)
  1156     04C2  3000               	movlw	0
  1157     04C3  00BF               	movwf	(_SetMoistL^(0+128)+1)
  1158     04C4  2D08               	goto	l2591
  1159     04C5                     l2575:
  1160     04C5  3066               	movlw	102
  1161     04C6  00BE               	movwf	_SetMoistL^(0+128)
  1162     04C7  3000               	movlw	0
  1163     04C8  00BF               	movwf	(_SetMoistL^(0+128)+1)
  1164     04C9  2D08               	goto	l2591
  1165     04CA                     l2577:
  1166     04CA  306D               	movlw	109
  1167     04CB  00BE               	movwf	_SetMoistL^(0+128)
  1168     04CC  3000               	movlw	0
  1169     04CD  00BF               	movwf	(_SetMoistL^(0+128)+1)
  1170     04CE  2D08               	goto	l2591
  1171     04CF                     l2579:
  1172     04CF  307D               	movlw	125
  1173     04D0  00BE               	movwf	_SetMoistL^(0+128)
  1174     04D1  3000               	movlw	0
  1175     04D2  00BF               	movwf	(_SetMoistL^(0+128)+1)
  1176     04D3  2D08               	goto	l2591
  1177     04D4                     l2581:
  1178     04D4  3007               	movlw	7
  1179     04D5  00BE               	movwf	_SetMoistL^(0+128)
  1180     04D6  3000               	movlw	0
  1181     04D7  00BF               	movwf	(_SetMoistL^(0+128)+1)
  1182     04D8  2D08               	goto	l2591
  1183     04D9                     l2583:
  1184     04D9  307F               	movlw	127
  1185     04DA  00BE               	movwf	_SetMoistL^(0+128)
  1186     04DB  3000               	movlw	0
  1187     04DC  00BF               	movwf	(_SetMoistL^(0+128)+1)
  1188     04DD  2D08               	goto	l2591
  1189     04DE                     l2585:
  1190     04DE  306F               	movlw	111
  1191     04DF  00BE               	movwf	_SetMoistL^(0+128)
  1192     04E0  3000               	movlw	0
  1193     04E1  00BF               	movwf	(_SetMoistL^(0+128)+1)
  1194     04E2  2D08               	goto	l2591
  1195     04E3                     l2589:
  1196                           
  1197                           ; Switch on 2 bytes has been partitioned into a top level switch of size 1, and 1 sub-sw
      +                          itches
  1198                           ; Switch size 1, requested type "simple"
  1199                           ; Number of cases is 1, Range of values is 0 to 0
  1200                           ; switch strategies available:
  1201                           ; Name         Instructions Cycles
  1202                           ; simple_byte            4     3 (average)
  1203                           ; direct_byte           11     8 (fixed)
  1204                           ; jumptable            260     6 (fixed)
  1205                           ;	Chosen strategy is simple_byte
  1206     04E3  083F               	movf	(_SetMoistL+1)^(0+128),w
  1207     04E4  3A00               	xorlw	0	; case 0
  1208     04E5  1903               	skipnz
  1209     04E6  2CE8               	goto	l2733
  1210     04E7  2D08               	goto	l2591
  1211     04E8                     l2733:
  1212                           
  1213                           ; Switch size 1, requested type "simple"
  1214                           ; Number of cases is 10, Range of values is 0 to 9
  1215                           ; switch strategies available:
  1216                           ; Name         Instructions Cycles
  1217                           ; simple_byte           31    16 (average)
  1218                           ; direct_byte           38     8 (fixed)
  1219                           ; jumptable            260     6 (fixed)
  1220                           ;	Chosen strategy is simple_byte
  1221     04E8  083E               	movf	_SetMoistL^(0+128),w
  1222     04E9  3A00               	xorlw	0	; case 0
  1223     04EA  1903               	skipnz
  1224     04EB  2CB1               	goto	l2567
  1225     04EC  3A01               	xorlw	1	; case 1
  1226     04ED  1903               	skipnz
  1227     04EE  2CB6               	goto	l2569
  1228     04EF  3A03               	xorlw	3	; case 2
  1229     04F0  1903               	skipnz
  1230     04F1  2CBB               	goto	l2571
  1231     04F2  3A01               	xorlw	1	; case 3
  1232     04F3  1903               	skipnz
  1233     04F4  2CC0               	goto	l2573
  1234     04F5  3A07               	xorlw	7	; case 4
  1235     04F6  1903               	skipnz
  1236     04F7  2CC5               	goto	l2575
  1237     04F8  3A01               	xorlw	1	; case 5
  1238     04F9  1903               	skipnz
  1239     04FA  2CCA               	goto	l2577
  1240     04FB  3A03               	xorlw	3	; case 6
  1241     04FC  1903               	skipnz
  1242     04FD  2CCF               	goto	l2579
  1243     04FE  3A01               	xorlw	1	; case 7
  1244     04FF  1903               	skipnz
  1245     0500  2CD4               	goto	l2581
  1246     0501  3A0F               	xorlw	15	; case 8
  1247     0502  1903               	skipnz
  1248     0503  2CD9               	goto	l2583
  1249     0504  3A01               	xorlw	1	; case 9
  1250     0505  1903               	skipnz
  1251     0506  2CDE               	goto	l2585
  1252     0507  2D08               	goto	l2591
  1253     0508                     l2591:
  1254                           
  1255                           ;main.c: 220:         PORTD=SetMoistR;
  1256     0508  0840               	movf	_SetMoistR^(0+128),w
  1257     0509  1283               	bcf	3,5	;RP0=0, select bank0
  1258     050A  1303               	bcf	3,6	;RP1=0, select bank0
  1259     050B  0088               	movwf	8	;volatile
  1260     050C                     l2593:
  1261                           
  1262                           ;main.c: 221:         PORTCbits.RC7=0;
  1263     050C  1387               	bcf	7,7	;volatile
  1264     050D                     l2595:
  1265                           
  1266                           ;main.c: 222:         PORTDbits.RD7=1;
  1267     050D  1788               	bsf	8,7	;volatile
  1268                           
  1269                           ;main.c: 223:         _delay((unsigned long)((100)*(8000000/4000.0)));
  1270     050E  3002               	movlw	2
  1271     050F  1683               	bsf	3,5	;RP0=1, select bank1
  1272     0510  1303               	bcf	3,6	;RP1=0, select bank1
  1273     0511  00B0               	movwf	(??_main^(0+128)+2)
  1274     0512  3004               	movlw	4
  1275     0513  00AF               	movwf	(??_main^(0+128)+1)
  1276     0514  30B9               	movlw	185
  1277     0515  00AE               	movwf	??_main^(0+128)
  1278     0516                     u3247:
  1279     0516  0BAE               	decfsz	??_main^(0+128),f
  1280     0517  2D16               	goto	u3247
  1281     0518  0BAF               	decfsz	(??_main^(0+128)+1),f
  1282     0519  2D16               	goto	u3247
  1283     051A  0BB0               	decfsz	(??_main^(0+128)+2),f
  1284     051B  2D16               	goto	u3247
  1285     051C  2D1D               	nop2
  1286                           
  1287                           ;main.c: 224:         PORTD=SetMoistL;
  1288     051D  1683               	bsf	3,5	;RP0=1, select bank1
  1289     051E  1303               	bcf	3,6	;RP1=0, select bank1
  1290     051F  083E               	movf	_SetMoistL^(0+128),w
  1291     0520  1283               	bcf	3,5	;RP0=0, select bank0
  1292     0521  1303               	bcf	3,6	;RP1=0, select bank0
  1293     0522  0088               	movwf	8	;volatile
  1294     0523                     l2597:
  1295                           
  1296                           ;main.c: 225:         PORTDbits.RD7=0;
  1297     0523  1388               	bcf	8,7	;volatile
  1298     0524                     l2599:
  1299                           
  1300                           ;main.c: 226:         PORTCbits.RC7=1;
  1301     0524  1787               	bsf	7,7	;volatile
  1302                           
  1303                           ;main.c: 227:         _delay((unsigned long)((50)*(8000000/4000.0)));
  1304     0525  3082               	movlw	130
  1305     0526  1683               	bsf	3,5	;RP0=1, select bank1
  1306     0527  1303               	bcf	3,6	;RP1=0, select bank1
  1307     0528  00AF               	movwf	(??_main^(0+128)+1)
  1308     0529  30DD               	movlw	221
  1309     052A  00AE               	movwf	??_main^(0+128)
  1310     052B                     u3257:
  1311     052B  0BAE               	decfsz	??_main^(0+128),f
  1312     052C  2D2B               	goto	u3257
  1313     052D  0BAF               	decfsz	(??_main^(0+128)+1),f
  1314     052E  2D2B               	goto	u3257
  1315     052F                     l2601:
  1316                           
  1317                           ;main.c: 230:         buffer[0] = (getMoist/10)%10 +48;
  1318     052F  300A               	movlw	10
  1319     0530  1683               	bsf	3,5	;RP0=1, select bank1
  1320     0531  1303               	bcf	3,6	;RP1=0, select bank1
  1321     0532  00A8               	movwf	___awmod@divisor^(0+128)
  1322     0533  3000               	movlw	0
  1323     0534  00A9               	movwf	(___awmod@divisor^(0+128)+1)
  1324     0535  300A               	movlw	10
  1325     0536  00A0               	movwf	___awdiv@divisor^(0+128)
  1326     0537  3000               	movlw	0
  1327     0538  00A1               	movwf	(___awdiv@divisor^(0+128)+1)
  1328     0539  1283               	bcf	3,5	;RP0=0, select bank0
  1329     053A  1303               	bcf	3,6	;RP1=0, select bank0
  1330     053B  0863               	movf	_getMoist+1,w
  1331     053C  1683               	bsf	3,5	;RP0=1, select bank1
  1332     053D  1303               	bcf	3,6	;RP1=0, select bank1
  1333     053E  00A3               	movwf	(___awdiv@dividend+1)^(0+128)
  1334     053F  1283               	bcf	3,5	;RP0=0, select bank0
  1335     0540  1303               	bcf	3,6	;RP1=0, select bank0
  1336     0541  0862               	movf	_getMoist,w
  1337     0542  1683               	bsf	3,5	;RP0=1, select bank1
  1338     0543  1303               	bcf	3,6	;RP1=0, select bank1
  1339     0544  00A2               	movwf	___awdiv@dividend^(0+128)
  1340     0545  120A  158A  231A  120A  118A  	fcall	___awdiv
  1341     054A  1683               	bsf	3,5	;RP0=1, select bank1
  1342     054B  1303               	bcf	3,6	;RP1=0, select bank1
  1343     054C  0821               	movf	(?___awdiv+1)^(0+128),w
  1344     054D  00AB               	movwf	(___awmod@dividend+1)^(0+128)
  1345     054E  0820               	movf	?___awdiv^(0+128),w
  1346     054F  00AA               	movwf	___awmod@dividend^(0+128)
  1347     0550  120A  158A  2262  120A  118A  	fcall	___awmod
  1348     0555  1683               	bsf	3,5	;RP0=1, select bank1
  1349     0556  1303               	bcf	3,6	;RP1=0, select bank1
  1350     0557  0828               	movf	?___awmod^(0+128),w
  1351     0558  3E30               	addlw	48
  1352     0559  00BA               	movwf	_buffer^(0+128)
  1353     055A                     l2603:
  1354                           
  1355                           ;main.c: 231:         buffer[1] = (getMoist)%10+48;
  1356     055A  300A               	movlw	10
  1357     055B  00A8               	movwf	___awmod@divisor^(0+128)
  1358     055C  3000               	movlw	0
  1359     055D  00A9               	movwf	(___awmod@divisor^(0+128)+1)
  1360     055E  1283               	bcf	3,5	;RP0=0, select bank0
  1361     055F  1303               	bcf	3,6	;RP1=0, select bank0
  1362     0560  0863               	movf	_getMoist+1,w
  1363     0561  1683               	bsf	3,5	;RP0=1, select bank1
  1364     0562  1303               	bcf	3,6	;RP1=0, select bank1
  1365     0563  00AB               	movwf	(___awmod@dividend+1)^(0+128)
  1366     0564  1283               	bcf	3,5	;RP0=0, select bank0
  1367     0565  1303               	bcf	3,6	;RP1=0, select bank0
  1368     0566  0862               	movf	_getMoist,w
  1369     0567  1683               	bsf	3,5	;RP0=1, select bank1
  1370     0568  1303               	bcf	3,6	;RP1=0, select bank1
  1371     0569  00AA               	movwf	___awmod@dividend^(0+128)
  1372     056A  120A  158A  2262  120A  118A  	fcall	___awmod
  1373     056F  1683               	bsf	3,5	;RP0=1, select bank1
  1374     0570  1303               	bcf	3,6	;RP1=0, select bank1
  1375     0571  0828               	movf	?___awmod^(0+128),w
  1376     0572  3E30               	addlw	48
  1377     0573  00BB               	movwf	(_buffer^(0+128)+1)
  1378     0574                     l2605:
  1379     0574  3008               	movlw	8
  1380     0575  120A  158A  22BD  120A  118A  	fcall	_LCD_Write
  1381     057A                     l2607:
  1382     057A  300A               	movlw	10
  1383     057B  120A  158A  22BD  120A  118A  	fcall	_LCD_Write
  1384     0580                     l191:
  1385                           
  1386                           ;main.c: 233:         LCD_putc(buffer[0]);
  1387     0580  1683               	bsf	3,5	;RP0=1, select bank1
  1388     0581  1303               	bcf	3,6	;RP1=0, select bank1
  1389     0582  083A               	movf	_buffer^(0+128),w
  1390     0583  120A  158A  23FB  120A  118A  	fcall	_LCD_putc
  1391     0588                     l194:
  1392     0588  3008               	movlw	8
  1393     0589  120A  158A  22BD  120A  118A  	fcall	_LCD_Write
  1394     058E  300B               	movlw	11
  1395     058F  120A  158A  22BD  120A  118A  	fcall	_LCD_Write
  1396     0594                     l208:
  1397                           
  1398                           ;main.c: 235:         LCD_putc(buffer[1]);
  1399     0594  1683               	bsf	3,5	;RP0=1, select bank1
  1400     0595  1303               	bcf	3,6	;RP1=0, select bank1
  1401     0596  083B               	movf	(_buffer^(0+128)+1),w
  1402     0597  120A  158A  23FB  120A  118A  	fcall	_LCD_putc
  1403     059C                     l211:
  1404     059C  3008               	movlw	8
  1405     059D  120A  158A  22BD  120A  118A  	fcall	_LCD_Write
  1406     05A2  300C               	movlw	12
  1407     05A3  120A  158A  22BD  120A  118A  	fcall	_LCD_Write
  1408     05A8                     l225:
  1409                           
  1410                           ;main.c: 237:         LCD_putc('%');
  1411     05A8  3025               	movlw	37
  1412     05A9  120A  158A  23FB  120A  118A  	fcall	_LCD_putc
  1413     05AE                     l2627:
  1414                           
  1415                           ;main.c: 240:         if(turnON==1)
  1416     05AE  1683               	bsf	3,5	;RP0=1, select bank1
  1417     05AF  1303               	bcf	3,6	;RP1=0, select bank1
  1418     05B0  0338               	decf	_turnON^(0+128),w
  1419     05B1  0439               	iorwf	(_turnON+1)^(0+128),w
  1420     05B2  1D03               	btfss	3,2
  1421     05B3  2DB5               	goto	u3191
  1422     05B4  2DB6               	goto	u3190
  1423     05B5                     u3191:
  1424     05B5  2DD4               	goto	l2641
  1425     05B6                     u3190:
  1426     05B6                     l2629:
  1427     05B6  3008               	movlw	8
  1428     05B7  00B1               	movwf	main@cmd^(0+128)
  1429     05B8                     l2631:
  1430     05B8  1531               	bsf	main@cmd^(0+128),2
  1431     05B9                     l2633:
  1432     05B9  14B1               	bsf	main@cmd^(0+128),1
  1433     05BA                     l2635:
  1434     05BA  1431               	bsf	main@cmd^(0+128),0
  1435     05BB                     l2637:
  1436     05BB  0831               	movf	main@cmd^(0+128),w
  1437     05BC  00AE               	movwf	??_main^(0+128)
  1438     05BD  3004               	movlw	4
  1439     05BE                     u3205:
  1440     05BE  1003               	clrc
  1441     05BF  0CAE               	rrf	??_main^(0+128),f
  1442     05C0  3EFF               	addlw	-1
  1443     05C1  1D03               	skipz
  1444     05C2  2DBE               	goto	u3205
  1445     05C3  082E               	movf	??_main^(0+128),w
  1446     05C4  390F               	andlw	15
  1447     05C5  120A  158A  22BD  120A  118A  	fcall	_LCD_Write
  1448     05CA                     l2639:
  1449     05CA  1683               	bsf	3,5	;RP0=1, select bank1
  1450     05CB  1303               	bcf	3,6	;RP1=0, select bank1
  1451     05CC  0831               	movf	main@cmd^(0+128),w
  1452     05CD  390F               	andlw	15
  1453     05CE  120A  158A  22BD  120A  118A  	fcall	_LCD_Write
  1454     05D3  2C07               	goto	l2535
  1455     05D4                     l2641:
  1456     05D4  3008               	movlw	8
  1457     05D5  00B2               	movwf	main@cmd_320^(0+128)
  1458     05D6                     l2649:
  1459     05D6  0832               	movf	main@cmd_320^(0+128),w
  1460     05D7  00AE               	movwf	??_main^(0+128)
  1461     05D8  3004               	movlw	4
  1462     05D9                     u3215:
  1463     05D9  1003               	clrc
  1464     05DA  0CAE               	rrf	??_main^(0+128),f
  1465     05DB  3EFF               	addlw	-1
  1466     05DC  1D03               	skipz
  1467     05DD  2DD9               	goto	u3215
  1468     05DE  082E               	movf	??_main^(0+128),w
  1469     05DF  390F               	andlw	15
  1470     05E0  120A  158A  22BD  120A  118A  	fcall	_LCD_Write
  1471     05E5  1683               	bsf	3,5	;RP0=1, select bank1
  1472     05E6  1303               	bcf	3,6	;RP1=0, select bank1
  1473     05E7  0832               	movf	main@cmd_320^(0+128),w
  1474     05E8  390F               	andlw	15
  1475     05E9  120A  158A  22BD  120A  118A  	fcall	_LCD_Write
  1476     05EE  2C07               	goto	l2535
  1477     05EF  120A  118A  2810   	ljmp	start
  1478     05F2                     __end_of_main:
  1479                           
  1480                           	psect	text1
  1481     0A62                     __ptext1:	
  1482 ;; *************** function ___awmod *****************
  1483 ;; Defined at:
  1484 ;;		line 5 in file "C:\Program Files\Microchip\xc8\v2.45\pic\sources\c99\common\awmod.c"
  1485 ;; Parameters:    Size  Location     Type
  1486 ;;  divisor         2    8[BANK1 ] int 
  1487 ;;  dividend        2   10[BANK1 ] int 
  1488 ;; Auto vars:     Size  Location     Type
  1489 ;;  sign            1   13[BANK1 ] unsigned char 
  1490 ;;  counter         1   12[BANK1 ] unsigned char 
  1491 ;; Return value:  Size  Location     Type
  1492 ;;                  2    8[BANK1 ] int 
  1493 ;; Registers used:
  1494 ;;		wreg, status,2, status,0, btemp+1
  1495 ;; Tracked objects:
  1496 ;;		On entry : 0/0
  1497 ;;		On exit  : 0/0
  1498 ;;		Unchanged: 0/0
  1499 ;; Data sizes:     COMMON   BANK0   BANK1   BANK3   BANK2
  1500 ;;      Params:         0       0       4       0       0
  1501 ;;      Locals:         0       0       2       0       0
  1502 ;;      Temps:          0       0       0       0       0
  1503 ;;      Totals:         0       0       6       0       0
  1504 ;;Total ram usage:        6 bytes
  1505 ;; Hardware stack levels used: 1
  1506 ;; Hardware stack levels required when called: 3
  1507 ;; This function calls:
  1508 ;;		Nothing
  1509 ;; This function is called by:
  1510 ;;		_main
  1511 ;; This function uses a non-reentrant model
  1512 ;;
  1513                           
  1514     0A62                     ___awmod:	
  1515                           ;psect for function ___awmod
  1516                           
  1517     0A62                     l2007:	
  1518                           ;incstack = 0
  1519                           ; Regs used in ___awmod: [wreg+status,2+status,0+btemp+1]
  1520                           
  1521     0A62  1683               	bsf	3,5	;RP0=1, select bank1
  1522     0A63  1303               	bcf	3,6	;RP1=0, select bank1
  1523     0A64  01AD               	clrf	___awmod@sign^(0+128)
  1524     0A65                     l2009:
  1525     0A65  1FAB               	btfss	(___awmod@dividend+1)^(0+128),7
  1526     0A66  2A68               	goto	u2051
  1527     0A67  2A69               	goto	u2050
  1528     0A68                     u2051:
  1529     0A68  2A70               	goto	l2015
  1530     0A69                     u2050:
  1531     0A69                     l2011:
  1532     0A69  09AA               	comf	___awmod@dividend^(0+128),f
  1533     0A6A  09AB               	comf	(___awmod@dividend+1)^(0+128),f
  1534     0A6B  0AAA               	incf	___awmod@dividend^(0+128),f
  1535     0A6C  1903               	skipnz
  1536     0A6D  0AAB               	incf	(___awmod@dividend+1)^(0+128),f
  1537     0A6E                     l2013:
  1538     0A6E  01AD               	clrf	___awmod@sign^(0+128)
  1539     0A6F  0AAD               	incf	___awmod@sign^(0+128),f
  1540     0A70                     l2015:
  1541     0A70  1FA9               	btfss	(___awmod@divisor+1)^(0+128),7
  1542     0A71  2A73               	goto	u2061
  1543     0A72  2A74               	goto	u2060
  1544     0A73                     u2061:
  1545     0A73  2A79               	goto	l2019
  1546     0A74                     u2060:
  1547     0A74                     l2017:
  1548     0A74  09A8               	comf	___awmod@divisor^(0+128),f
  1549     0A75  09A9               	comf	(___awmod@divisor+1)^(0+128),f
  1550     0A76  0AA8               	incf	___awmod@divisor^(0+128),f
  1551     0A77  1903               	skipnz
  1552     0A78  0AA9               	incf	(___awmod@divisor+1)^(0+128),f
  1553     0A79                     l2019:
  1554     0A79  0828               	movf	___awmod@divisor^(0+128),w
  1555     0A7A  0429               	iorwf	(___awmod@divisor+1)^(0+128),w
  1556     0A7B  1903               	btfsc	3,2
  1557     0A7C  2A7E               	goto	u2071
  1558     0A7D  2A7F               	goto	u2070
  1559     0A7E                     u2071:
  1560     0A7E  2AAE               	goto	l2037
  1561     0A7F                     u2070:
  1562     0A7F                     l2021:
  1563     0A7F  01AC               	clrf	___awmod@counter^(0+128)
  1564     0A80  0AAC               	incf	___awmod@counter^(0+128),f
  1565     0A81  2A8D               	goto	l2027
  1566     0A82                     l2023:
  1567     0A82  3001               	movlw	1
  1568     0A83                     u2085:
  1569     0A83  1003               	clrc
  1570     0A84  0DA8               	rlf	___awmod@divisor^(0+128),f
  1571     0A85  0DA9               	rlf	(___awmod@divisor+1)^(0+128),f
  1572     0A86  3EFF               	addlw	-1
  1573     0A87  1D03               	skipz
  1574     0A88  2A83               	goto	u2085
  1575     0A89                     l2025:
  1576     0A89  3001               	movlw	1
  1577     0A8A  00FF               	movwf	btemp+1
  1578     0A8B  087F               	movf	btemp+1,w
  1579     0A8C  07AC               	addwf	___awmod@counter^(0+128),f
  1580     0A8D                     l2027:
  1581     0A8D  1FA9               	btfss	(___awmod@divisor+1)^(0+128),7
  1582     0A8E  2A90               	goto	u2091
  1583     0A8F  2A91               	goto	u2090
  1584     0A90                     u2091:
  1585     0A90  2A82               	goto	l2023
  1586     0A91                     u2090:
  1587     0A91                     l2029:
  1588     0A91  0829               	movf	(___awmod@divisor+1)^(0+128),w
  1589     0A92  022B               	subwf	(___awmod@dividend+1)^(0+128),w
  1590     0A93  1D03               	skipz
  1591     0A94  2A97               	goto	u2105
  1592     0A95  0828               	movf	___awmod@divisor^(0+128),w
  1593     0A96  022A               	subwf	___awmod@dividend^(0+128),w
  1594     0A97                     u2105:
  1595     0A97  1C03               	skipc
  1596     0A98  2A9A               	goto	u2101
  1597     0A99  2A9B               	goto	u2100
  1598     0A9A                     u2101:
  1599     0A9A  2AA1               	goto	l2033
  1600     0A9B                     u2100:
  1601     0A9B                     l2031:
  1602     0A9B  0828               	movf	___awmod@divisor^(0+128),w
  1603     0A9C  02AA               	subwf	___awmod@dividend^(0+128),f
  1604     0A9D  0829               	movf	(___awmod@divisor+1)^(0+128),w
  1605     0A9E  1C03               	skipc
  1606     0A9F  03AB               	decf	(___awmod@dividend+1)^(0+128),f
  1607     0AA0  02AB               	subwf	(___awmod@dividend+1)^(0+128),f
  1608     0AA1                     l2033:
  1609     0AA1  3001               	movlw	1
  1610     0AA2                     u2115:
  1611     0AA2  1003               	clrc
  1612     0AA3  0CA9               	rrf	(___awmod@divisor+1)^(0+128),f
  1613     0AA4  0CA8               	rrf	___awmod@divisor^(0+128),f
  1614     0AA5  3EFF               	addlw	-1
  1615     0AA6  1D03               	skipz
  1616     0AA7  2AA2               	goto	u2115
  1617     0AA8                     l2035:
  1618     0AA8  3001               	movlw	1
  1619     0AA9  02AC               	subwf	___awmod@counter^(0+128),f
  1620     0AAA  1D03               	btfss	3,2
  1621     0AAB  2AAD               	goto	u2121
  1622     0AAC  2AAE               	goto	u2120
  1623     0AAD                     u2121:
  1624     0AAD  2A91               	goto	l2029
  1625     0AAE                     u2120:
  1626     0AAE                     l2037:
  1627     0AAE  082D               	movf	___awmod@sign^(0+128),w
  1628     0AAF  1903               	btfsc	3,2
  1629     0AB0  2AB2               	goto	u2131
  1630     0AB1  2AB3               	goto	u2130
  1631     0AB2                     u2131:
  1632     0AB2  2AB8               	goto	l2041
  1633     0AB3                     u2130:
  1634     0AB3                     l2039:
  1635     0AB3  09AA               	comf	___awmod@dividend^(0+128),f
  1636     0AB4  09AB               	comf	(___awmod@dividend+1)^(0+128),f
  1637     0AB5  0AAA               	incf	___awmod@dividend^(0+128),f
  1638     0AB6  1903               	skipnz
  1639     0AB7  0AAB               	incf	(___awmod@dividend+1)^(0+128),f
  1640     0AB8                     l2041:
  1641     0AB8  082B               	movf	(___awmod@dividend+1)^(0+128),w
  1642     0AB9  00A9               	movwf	(?___awmod+1)^(0+128)
  1643     0ABA  082A               	movf	___awmod@dividend^(0+128),w
  1644     0ABB  00A8               	movwf	?___awmod^(0+128)
  1645     0ABC                     l575:
  1646     0ABC  0008               	return
  1647     0ABD                     __end_of___awmod:
  1648                           
  1649                           	psect	text2
  1650     0B1A                     __ptext2:	
  1651 ;; *************** function ___awdiv *****************
  1652 ;; Defined at:
  1653 ;;		line 5 in file "C:\Program Files\Microchip\xc8\v2.45\pic\sources\c99\common\awdiv.c"
  1654 ;; Parameters:    Size  Location     Type
  1655 ;;  divisor         2    0[BANK1 ] int 
  1656 ;;  dividend        2    2[BANK1 ] int 
  1657 ;; Auto vars:     Size  Location     Type
  1658 ;;  quotient        2    6[BANK1 ] int 
  1659 ;;  sign            1    5[BANK1 ] unsigned char 
  1660 ;;  counter         1    4[BANK1 ] unsigned char 
  1661 ;; Return value:  Size  Location     Type
  1662 ;;                  2    0[BANK1 ] int 
  1663 ;; Registers used:
  1664 ;;		wreg, status,2, status,0, btemp+1
  1665 ;; Tracked objects:
  1666 ;;		On entry : 0/0
  1667 ;;		On exit  : 0/0
  1668 ;;		Unchanged: 0/0
  1669 ;; Data sizes:     COMMON   BANK0   BANK1   BANK3   BANK2
  1670 ;;      Params:         0       0       4       0       0
  1671 ;;      Locals:         0       0       4       0       0
  1672 ;;      Temps:          0       0       0       0       0
  1673 ;;      Totals:         0       0       8       0       0
  1674 ;;Total ram usage:        8 bytes
  1675 ;; Hardware stack levels used: 1
  1676 ;; Hardware stack levels required when called: 3
  1677 ;; This function calls:
  1678 ;;		Nothing
  1679 ;; This function is called by:
  1680 ;;		_main
  1681 ;; This function uses a non-reentrant model
  1682 ;;
  1683                           
  1684     0B1A                     ___awdiv:	
  1685                           ;psect for function ___awdiv
  1686                           
  1687     0B1A                     l1963:	
  1688                           ;incstack = 0
  1689                           ; Regs used in ___awdiv: [wreg+status,2+status,0+btemp+1]
  1690                           
  1691     0B1A  1683               	bsf	3,5	;RP0=1, select bank1
  1692     0B1B  1303               	bcf	3,6	;RP1=0, select bank1
  1693     0B1C  01A5               	clrf	___awdiv@sign^(0+128)
  1694     0B1D                     l1965:
  1695     0B1D  1FA1               	btfss	(___awdiv@divisor+1)^(0+128),7
  1696     0B1E  2B20               	goto	u1951
  1697     0B1F  2B21               	goto	u1950
  1698     0B20                     u1951:
  1699     0B20  2B28               	goto	l1971
  1700     0B21                     u1950:
  1701     0B21                     l1967:
  1702     0B21  09A0               	comf	___awdiv@divisor^(0+128),f
  1703     0B22  09A1               	comf	(___awdiv@divisor+1)^(0+128),f
  1704     0B23  0AA0               	incf	___awdiv@divisor^(0+128),f
  1705     0B24  1903               	skipnz
  1706     0B25  0AA1               	incf	(___awdiv@divisor+1)^(0+128),f
  1707     0B26                     l1969:
  1708     0B26  01A5               	clrf	___awdiv@sign^(0+128)
  1709     0B27  0AA5               	incf	___awdiv@sign^(0+128),f
  1710     0B28                     l1971:
  1711     0B28  1FA3               	btfss	(___awdiv@dividend+1)^(0+128),7
  1712     0B29  2B2B               	goto	u1961
  1713     0B2A  2B2C               	goto	u1960
  1714     0B2B                     u1961:
  1715     0B2B  2B35               	goto	l1977
  1716     0B2C                     u1960:
  1717     0B2C                     l1973:
  1718     0B2C  09A2               	comf	___awdiv@dividend^(0+128),f
  1719     0B2D  09A3               	comf	(___awdiv@dividend+1)^(0+128),f
  1720     0B2E  0AA2               	incf	___awdiv@dividend^(0+128),f
  1721     0B2F  1903               	skipnz
  1722     0B30  0AA3               	incf	(___awdiv@dividend+1)^(0+128),f
  1723     0B31                     l1975:
  1724     0B31  3001               	movlw	1
  1725     0B32  00FF               	movwf	btemp+1
  1726     0B33  087F               	movf	btemp+1,w
  1727     0B34  06A5               	xorwf	___awdiv@sign^(0+128),f
  1728     0B35                     l1977:
  1729     0B35  01A6               	clrf	___awdiv@quotient^(0+128)
  1730     0B36  01A7               	clrf	(___awdiv@quotient+1)^(0+128)
  1731     0B37                     l1979:
  1732     0B37  0820               	movf	___awdiv@divisor^(0+128),w
  1733     0B38  0421               	iorwf	(___awdiv@divisor+1)^(0+128),w
  1734     0B39  1903               	btfsc	3,2
  1735     0B3A  2B3C               	goto	u1971
  1736     0B3B  2B3D               	goto	u1970
  1737     0B3C                     u1971:
  1738     0B3C  2B74               	goto	l1999
  1739     0B3D                     u1970:
  1740     0B3D                     l1981:
  1741     0B3D  01A4               	clrf	___awdiv@counter^(0+128)
  1742     0B3E  0AA4               	incf	___awdiv@counter^(0+128),f
  1743     0B3F  2B4B               	goto	l1987
  1744     0B40                     l1983:
  1745     0B40  3001               	movlw	1
  1746     0B41                     u1985:
  1747     0B41  1003               	clrc
  1748     0B42  0DA0               	rlf	___awdiv@divisor^(0+128),f
  1749     0B43  0DA1               	rlf	(___awdiv@divisor+1)^(0+128),f
  1750     0B44  3EFF               	addlw	-1
  1751     0B45  1D03               	skipz
  1752     0B46  2B41               	goto	u1985
  1753     0B47                     l1985:
  1754     0B47  3001               	movlw	1
  1755     0B48  00FF               	movwf	btemp+1
  1756     0B49  087F               	movf	btemp+1,w
  1757     0B4A  07A4               	addwf	___awdiv@counter^(0+128),f
  1758     0B4B                     l1987:
  1759     0B4B  1FA1               	btfss	(___awdiv@divisor+1)^(0+128),7
  1760     0B4C  2B4E               	goto	u1991
  1761     0B4D  2B4F               	goto	u1990
  1762     0B4E                     u1991:
  1763     0B4E  2B40               	goto	l1983
  1764     0B4F                     u1990:
  1765     0B4F                     l1989:
  1766     0B4F  3001               	movlw	1
  1767     0B50                     u2005:
  1768     0B50  1003               	clrc
  1769     0B51  0DA6               	rlf	___awdiv@quotient^(0+128),f
  1770     0B52  0DA7               	rlf	(___awdiv@quotient+1)^(0+128),f
  1771     0B53  3EFF               	addlw	-1
  1772     0B54  1D03               	skipz
  1773     0B55  2B50               	goto	u2005
  1774     0B56  0821               	movf	(___awdiv@divisor+1)^(0+128),w
  1775     0B57  0223               	subwf	(___awdiv@dividend+1)^(0+128),w
  1776     0B58  1D03               	skipz
  1777     0B59  2B5C               	goto	u2015
  1778     0B5A  0820               	movf	___awdiv@divisor^(0+128),w
  1779     0B5B  0222               	subwf	___awdiv@dividend^(0+128),w
  1780     0B5C                     u2015:
  1781     0B5C  1C03               	skipc
  1782     0B5D  2B5F               	goto	u2011
  1783     0B5E  2B60               	goto	u2010
  1784     0B5F                     u2011:
  1785     0B5F  2B67               	goto	l1995
  1786     0B60                     u2010:
  1787     0B60                     l1991:
  1788     0B60  0820               	movf	___awdiv@divisor^(0+128),w
  1789     0B61  02A2               	subwf	___awdiv@dividend^(0+128),f
  1790     0B62  0821               	movf	(___awdiv@divisor+1)^(0+128),w
  1791     0B63  1C03               	skipc
  1792     0B64  03A3               	decf	(___awdiv@dividend+1)^(0+128),f
  1793     0B65  02A3               	subwf	(___awdiv@dividend+1)^(0+128),f
  1794     0B66                     l1993:
  1795     0B66  1426               	bsf	___awdiv@quotient^(0+128),0
  1796     0B67                     l1995:
  1797     0B67  3001               	movlw	1
  1798     0B68                     u2025:
  1799     0B68  1003               	clrc
  1800     0B69  0CA1               	rrf	(___awdiv@divisor+1)^(0+128),f
  1801     0B6A  0CA0               	rrf	___awdiv@divisor^(0+128),f
  1802     0B6B  3EFF               	addlw	-1
  1803     0B6C  1D03               	skipz
  1804     0B6D  2B68               	goto	u2025
  1805     0B6E                     l1997:
  1806     0B6E  3001               	movlw	1
  1807     0B6F  02A4               	subwf	___awdiv@counter^(0+128),f
  1808     0B70  1D03               	btfss	3,2
  1809     0B71  2B73               	goto	u2031
  1810     0B72  2B74               	goto	u2030
  1811     0B73                     u2031:
  1812     0B73  2B4F               	goto	l1989
  1813     0B74                     u2030:
  1814     0B74                     l1999:
  1815     0B74  0825               	movf	___awdiv@sign^(0+128),w
  1816     0B75  1903               	btfsc	3,2
  1817     0B76  2B78               	goto	u2041
  1818     0B77  2B79               	goto	u2040
  1819     0B78                     u2041:
  1820     0B78  2B7E               	goto	l2003
  1821     0B79                     u2040:
  1822     0B79                     l2001:
  1823     0B79  09A6               	comf	___awdiv@quotient^(0+128),f
  1824     0B7A  09A7               	comf	(___awdiv@quotient+1)^(0+128),f
  1825     0B7B  0AA6               	incf	___awdiv@quotient^(0+128),f
  1826     0B7C  1903               	skipnz
  1827     0B7D  0AA7               	incf	(___awdiv@quotient+1)^(0+128),f
  1828     0B7E                     l2003:
  1829     0B7E  0827               	movf	(___awdiv@quotient+1)^(0+128),w
  1830     0B7F  00A1               	movwf	(?___awdiv+1)^(0+128)
  1831     0B80  0826               	movf	___awdiv@quotient^(0+128),w
  1832     0B81  00A0               	movwf	?___awdiv^(0+128)
  1833     0B82                     l562:
  1834     0B82  0008               	return
  1835     0B83                     __end_of___awdiv:
  1836                           
  1837                           	psect	text3
  1838     0A39                     __ptext3:	
  1839 ;; *************** function _LCD_putrs *****************
  1840 ;; Defined at:
  1841 ;;		line 143 in file "lcd.c"
  1842 ;; Parameters:    Size  Location     Type
  1843 ;;  a               1    wreg     PTR const unsigned char 
  1844 ;;		 -> STR_3(10), STR_2(12), STR_1(12), 
  1845 ;; Auto vars:     Size  Location     Type
  1846 ;;  a               1    8[BANK1 ] PTR const unsigned char 
  1847 ;;		 -> STR_3(10), STR_2(12), STR_1(12), 
  1848 ;;  i               2    6[BANK1 ] int 
  1849 ;; Return value:  Size  Location     Type
  1850 ;;                  1    wreg      void 
  1851 ;; Registers used:
  1852 ;;		wreg, fsr0l, fsr0h, status,2, status,0, btemp+1, pclath, cstack
  1853 ;; Tracked objects:
  1854 ;;		On entry : 0/0
  1855 ;;		On exit  : 0/0
  1856 ;;		Unchanged: 0/0
  1857 ;; Data sizes:     COMMON   BANK0   BANK1   BANK3   BANK2
  1858 ;;      Params:         0       0       0       0       0
  1859 ;;      Locals:         0       0       3       0       0
  1860 ;;      Temps:          0       0       0       0       0
  1861 ;;      Totals:         0       0       3       0       0
  1862 ;;Total ram usage:        3 bytes
  1863 ;; Hardware stack levels used: 1
  1864 ;; Hardware stack levels required when called: 5
  1865 ;; This function calls:
  1866 ;;		_LCD_putc
  1867 ;; This function is called by:
  1868 ;;		_main
  1869 ;; This function uses a non-reentrant model
  1870 ;;
  1871                           
  1872     0A39                     _LCD_putrs:	
  1873                           ;psect for function _LCD_putrs
  1874                           
  1875                           
  1876                           ;incstack = 0
  1877                           ; Regs used in _LCD_putrs: [wreg-fsr0h+status,2+status,0+btemp+1+pclath+cstack]
  1878                           ;LCD_putrs@a stored from wreg
  1879     0A39  1683               	bsf	3,5	;RP0=1, select bank1
  1880     0A3A  1303               	bcf	3,6	;RP1=0, select bank1
  1881     0A3B  00A8               	movwf	LCD_putrs@a^(0+128)
  1882     0A3C                     l1955:
  1883                           
  1884                           ;lcd.c: 145:     for ( int i = 0; a[i] != '\0'; ++i ) {
  1885     0A3C  01A6               	clrf	LCD_putrs@i^(0+128)
  1886     0A3D  01A7               	clrf	(LCD_putrs@i+1)^(0+128)
  1887     0A3E  2A54               	goto	l1961
  1888     0A3F                     l1957:
  1889                           
  1890                           ;lcd.c: 146:         LCD_putc(a[i]);
  1891     0A3F  0826               	movf	LCD_putrs@i^(0+128),w
  1892     0A40  0728               	addwf	LCD_putrs@a^(0+128),w
  1893     0A41  0084               	movwf	4
  1894     0A42  120A  158A  2000  120A  158A  	fcall	stringdir
  1895     0A47  120A  158A  23FB  120A  158A  	fcall	_LCD_putc
  1896     0A4C                     l1959:
  1897                           
  1898                           ;lcd.c: 147:     }
  1899     0A4C  3001               	movlw	1
  1900     0A4D  1683               	bsf	3,5	;RP0=1, select bank1
  1901     0A4E  1303               	bcf	3,6	;RP1=0, select bank1
  1902     0A4F  07A6               	addwf	LCD_putrs@i^(0+128),f
  1903     0A50  1803               	skipnc
  1904     0A51  0AA7               	incf	(LCD_putrs@i+1)^(0+128),f
  1905     0A52  3000               	movlw	0
  1906     0A53  07A7               	addwf	(LCD_putrs@i+1)^(0+128),f
  1907     0A54                     l1961:
  1908     0A54  0826               	movf	LCD_putrs@i^(0+128),w
  1909     0A55  0728               	addwf	LCD_putrs@a^(0+128),w
  1910     0A56  0084               	movwf	4
  1911     0A57  120A  158A  2000  120A  158A  	fcall	stringdir
  1912     0A5C  3A00               	xorlw	0
  1913     0A5D  1D03               	skipz
  1914     0A5E  2A60               	goto	u1941
  1915     0A5F  2A61               	goto	u1940
  1916     0A60                     u1941:
  1917     0A60  2A3F               	goto	l1957
  1918     0A61                     u1940:
  1919     0A61                     l323:
  1920     0A61  0008               	return
  1921     0A62                     __end_of_LCD_putrs:
  1922                           
  1923                           	psect	text4
  1924     0BFB                     __ptext4:	
  1925 ;; *************** function _LCD_putc *****************
  1926 ;; Defined at:
  1927 ;;		line 118 in file "lcd.c"
  1928 ;; Parameters:    Size  Location     Type
  1929 ;;  c               1    wreg     unsigned char 
  1930 ;; Auto vars:     Size  Location     Type
  1931 ;;  c               1    5[BANK1 ] unsigned char 
  1932 ;; Return value:  Size  Location     Type
  1933 ;;                  1    wreg      void 
  1934 ;; Registers used:
  1935 ;;		wreg, fsr0l, fsr0h, status,2, status,0, btemp+1, pclath, cstack
  1936 ;; Tracked objects:
  1937 ;;		On entry : 0/0
  1938 ;;		On exit  : 0/0
  1939 ;;		Unchanged: 0/0
  1940 ;; Data sizes:     COMMON   BANK0   BANK1   BANK3   BANK2
  1941 ;;      Params:         0       0       0       0       0
  1942 ;;      Locals:         0       0       1       0       0
  1943 ;;      Temps:          0       0       2       0       0
  1944 ;;      Totals:         0       0       3       0       0
  1945 ;;Total ram usage:        3 bytes
  1946 ;; Hardware stack levels used: 1
  1947 ;; Hardware stack levels required when called: 4
  1948 ;; This function calls:
  1949 ;;		_LCD_Out
  1950 ;; This function is called by:
  1951 ;;		_main
  1952 ;;		_LCD_putrs
  1953 ;;		_LCD_puts
  1954 ;; This function uses a non-reentrant model
  1955 ;;
  1956                           
  1957     0BFB                     _LCD_putc:	
  1958                           ;psect for function _LCD_putc
  1959                           
  1960                           
  1961                           ;incstack = 0
  1962                           ; Regs used in _LCD_putc: [wreg-fsr0h+status,2+status,0+btemp+1+pclath+cstack]
  1963                           ;LCD_putc@c stored from wreg
  1964     0BFB  1683               	bsf	3,5	;RP0=1, select bank1
  1965     0BFC  1303               	bcf	3,6	;RP1=0, select bank1
  1966     0BFD  00A5               	movwf	LCD_putc@c^(0+128)
  1967     0BFE                     l1833:
  1968                           
  1969                           ;lcd.c: 120:    *(lcd.PORT) |= 1 << lcd.RS;
  1970     0BFE  3001               	movlw	1
  1971     0BFF  00A3               	movwf	??_LCD_putc^(0+128)
  1972     0C00  0835               	movf	(_lcd^(0+128)+2),w
  1973     0C01  3907               	andlw	7
  1974     0C02  3E01               	addlw	1
  1975     0C03  2C06               	goto	u1774
  1976     0C04                     u1775:
  1977     0C04  1003               	clrc
  1978     0C05  0DA3               	rlf	??_LCD_putc^(0+128),f
  1979     0C06                     u1774:
  1980     0C06  3EFF               	addlw	-1
  1981     0C07  1D03               	skipz
  1982     0C08  2C04               	goto	u1775
  1983     0C09  0823               	movf	??_LCD_putc^(0+128),w
  1984     0C0A  00FF               	movwf	btemp+1
  1985     0C0B  0833               	movf	_lcd^(0+128),w
  1986     0C0C  0084               	movwf	4
  1987     0C0D  1783               	bsf	3,7
  1988     0C0E  1C34               	btfss	(_lcd+1)^(0+128),0
  1989     0C0F  1383               	bcf	3,7
  1990     0C10  087F               	movf	btemp+1,w
  1991     0C11  0480               	iorwf	0,f
  1992     0C12                     l1835:
  1993                           
  1994                           ;lcd.c: 121:     LCD_Out((c & 0xF0) >> 4);
  1995     0C12  0825               	movf	LCD_putc@c^(0+128),w
  1996     0C13  00A3               	movwf	??_LCD_putc^(0+128)
  1997     0C14  3004               	movlw	4
  1998     0C15                     u1785:
  1999     0C15  1003               	clrc
  2000     0C16  0CA3               	rrf	??_LCD_putc^(0+128),f
  2001     0C17  3EFF               	addlw	-1
  2002     0C18  1D03               	skipz
  2003     0C19  2C15               	goto	u1785
  2004     0C1A  0823               	movf	??_LCD_putc^(0+128),w
  2005     0C1B  390F               	andlw	15
  2006     0C1C  120A  158A  261B  120A  158A  	fcall	_LCD_Out
  2007     0C21                     l1837:
  2008                           
  2009                           ;lcd.c: 123:     *(lcd.PORT) |= 1 << lcd.EN;
  2010     0C21  3001               	movlw	1
  2011     0C22  1683               	bsf	3,5	;RP0=1, select bank1
  2012     0C23  1303               	bcf	3,6	;RP1=0, select bank1
  2013     0C24  00A3               	movwf	??_LCD_putc^(0+128)
  2014     0C25  0C35               	rrf	(_lcd^(0+128)+2),w
  2015     0C26  00A4               	movwf	(??_LCD_putc+1)^(0+128)
  2016     0C27  0CA4               	rrf	(??_LCD_putc+1)^(0+128),f
  2017     0C28  0C24               	rrf	(??_LCD_putc+1)^(0+128),w
  2018     0C29  3907               	andlw	7
  2019     0C2A  3E01               	addlw	1
  2020     0C2B  2C2E               	goto	u1794
  2021     0C2C                     u1795:
  2022     0C2C  1003               	clrc
  2023     0C2D  0DA3               	rlf	??_LCD_putc^(0+128),f
  2024     0C2E                     u1794:
  2025     0C2E  3EFF               	addlw	-1
  2026     0C2F  1D03               	skipz
  2027     0C30  2C2C               	goto	u1795
  2028     0C31  0823               	movf	??_LCD_putc^(0+128),w
  2029     0C32  00FF               	movwf	btemp+1
  2030     0C33  0833               	movf	_lcd^(0+128),w
  2031     0C34  0084               	movwf	4
  2032     0C35  1783               	bsf	3,7
  2033     0C36  1C34               	btfss	(_lcd+1)^(0+128),0
  2034     0C37  1383               	bcf	3,7
  2035     0C38  087F               	movf	btemp+1,w
  2036     0C39  0480               	iorwf	0,f
  2037     0C3A                     l1839:
  2038                           
  2039                           ;lcd.c: 124:     _delay((unsigned long)((40)*(8000000/4000000.0)));
  2040     0C3A  3019               	movlw	25
  2041     0C3B  1683               	bsf	3,5	;RP0=1, select bank1
  2042     0C3C  1303               	bcf	3,6	;RP1=0, select bank1
  2043     0C3D  00A3               	movwf	??_LCD_putc^(0+128)
  2044     0C3E                     u3267:
  2045     0C3E  0BA3               	decfsz	??_LCD_putc^(0+128),f
  2046     0C3F  2C3E               	goto	u3267
  2047     0C40  2C41               	nop2
  2048     0C41                     l1841:
  2049                           
  2050                           ;lcd.c: 125:     *(lcd.PORT) &= ~(1 << lcd.EN);
  2051     0C41  3001               	movlw	1
  2052     0C42  1683               	bsf	3,5	;RP0=1, select bank1
  2053     0C43  1303               	bcf	3,6	;RP1=0, select bank1
  2054     0C44  00A3               	movwf	??_LCD_putc^(0+128)
  2055     0C45  0C35               	rrf	(_lcd^(0+128)+2),w
  2056     0C46  00A4               	movwf	(??_LCD_putc+1)^(0+128)
  2057     0C47  0CA4               	rrf	(??_LCD_putc+1)^(0+128),f
  2058     0C48  0C24               	rrf	(??_LCD_putc+1)^(0+128),w
  2059     0C49  3907               	andlw	7
  2060     0C4A  3E01               	addlw	1
  2061     0C4B  2C4E               	goto	u1804
  2062     0C4C                     u1805:
  2063     0C4C  1003               	clrc
  2064     0C4D  0DA3               	rlf	??_LCD_putc^(0+128),f
  2065     0C4E                     u1804:
  2066     0C4E  3EFF               	addlw	-1
  2067     0C4F  1D03               	skipz
  2068     0C50  2C4C               	goto	u1805
  2069     0C51  0823               	movf	??_LCD_putc^(0+128),w
  2070     0C52  3AFF               	xorlw	255
  2071     0C53  00FF               	movwf	btemp+1
  2072     0C54  0833               	movf	_lcd^(0+128),w
  2073     0C55  0084               	movwf	4
  2074     0C56  1783               	bsf	3,7
  2075     0C57  1C34               	btfss	(_lcd+1)^(0+128),0
  2076     0C58  1383               	bcf	3,7
  2077     0C59  087F               	movf	btemp+1,w
  2078     0C5A  0580               	andwf	0,f
  2079     0C5B                     l1843:
  2080                           
  2081                           ;lcd.c: 127:     LCD_Out(c & 0x0F);
  2082     0C5B  0825               	movf	LCD_putc@c^(0+128),w
  2083     0C5C  390F               	andlw	15
  2084     0C5D  120A  158A  261B  120A  158A  	fcall	_LCD_Out
  2085     0C62                     l1845:
  2086                           
  2087                           ;lcd.c: 129:     *(lcd.PORT) |= 1 << lcd.EN;
  2088     0C62  3001               	movlw	1
  2089     0C63  1683               	bsf	3,5	;RP0=1, select bank1
  2090     0C64  1303               	bcf	3,6	;RP1=0, select bank1
  2091     0C65  00A3               	movwf	??_LCD_putc^(0+128)
  2092     0C66  0C35               	rrf	(_lcd^(0+128)+2),w
  2093     0C67  00A4               	movwf	(??_LCD_putc+1)^(0+128)
  2094     0C68  0CA4               	rrf	(??_LCD_putc+1)^(0+128),f
  2095     0C69  0C24               	rrf	(??_LCD_putc+1)^(0+128),w
  2096     0C6A  3907               	andlw	7
  2097     0C6B  3E01               	addlw	1
  2098     0C6C  2C6F               	goto	u1814
  2099     0C6D                     u1815:
  2100     0C6D  1003               	clrc
  2101     0C6E  0DA3               	rlf	??_LCD_putc^(0+128),f
  2102     0C6F                     u1814:
  2103     0C6F  3EFF               	addlw	-1
  2104     0C70  1D03               	skipz
  2105     0C71  2C6D               	goto	u1815
  2106     0C72  0823               	movf	??_LCD_putc^(0+128),w
  2107     0C73  00FF               	movwf	btemp+1
  2108     0C74  0833               	movf	_lcd^(0+128),w
  2109     0C75  0084               	movwf	4
  2110     0C76  1783               	bsf	3,7
  2111     0C77  1C34               	btfss	(_lcd+1)^(0+128),0
  2112     0C78  1383               	bcf	3,7
  2113     0C79  087F               	movf	btemp+1,w
  2114     0C7A  0480               	iorwf	0,f
  2115                           
  2116                           ;lcd.c: 130:     _delay((unsigned long)((40)*(8000000/4000000.0)));
  2117     0C7B  3019               	movlw	25
  2118     0C7C  1683               	bsf	3,5	;RP0=1, select bank1
  2119     0C7D  1303               	bcf	3,6	;RP1=0, select bank1
  2120     0C7E  00A3               	movwf	??_LCD_putc^(0+128)
  2121     0C7F                     u3277:
  2122     0C7F  0BA3               	decfsz	??_LCD_putc^(0+128),f
  2123     0C80  2C7F               	goto	u3277
  2124     0C81  2C82               	nop2
  2125     0C82                     l1847:
  2126                           
  2127                           ;lcd.c: 131:     *(lcd.PORT) &= ~(1 << lcd.EN);
  2128     0C82  3001               	movlw	1
  2129     0C83  1683               	bsf	3,5	;RP0=1, select bank1
  2130     0C84  1303               	bcf	3,6	;RP1=0, select bank1
  2131     0C85  00A3               	movwf	??_LCD_putc^(0+128)
  2132     0C86  0C35               	rrf	(_lcd^(0+128)+2),w
  2133     0C87  00A4               	movwf	(??_LCD_putc+1)^(0+128)
  2134     0C88  0CA4               	rrf	(??_LCD_putc+1)^(0+128),f
  2135     0C89  0C24               	rrf	(??_LCD_putc+1)^(0+128),w
  2136     0C8A  3907               	andlw	7
  2137     0C8B  3E01               	addlw	1
  2138     0C8C  2C8F               	goto	u1824
  2139     0C8D                     u1825:
  2140     0C8D  1003               	clrc
  2141     0C8E  0DA3               	rlf	??_LCD_putc^(0+128),f
  2142     0C8F                     u1824:
  2143     0C8F  3EFF               	addlw	-1
  2144     0C90  1D03               	skipz
  2145     0C91  2C8D               	goto	u1825
  2146     0C92  0823               	movf	??_LCD_putc^(0+128),w
  2147     0C93  3AFF               	xorlw	255
  2148     0C94  00FF               	movwf	btemp+1
  2149     0C95  0833               	movf	_lcd^(0+128),w
  2150     0C96  0084               	movwf	4
  2151     0C97  1783               	bsf	3,7
  2152     0C98  1C34               	btfss	(_lcd+1)^(0+128),0
  2153     0C99  1383               	bcf	3,7
  2154     0C9A  087F               	movf	btemp+1,w
  2155     0C9B  0580               	andwf	0,f
  2156     0C9C                     l311:
  2157     0C9C  0008               	return
  2158     0C9D                     __end_of_LCD_putc:
  2159                           
  2160                           	psect	text5
  2161     0D55                     __ptext5:	
  2162 ;; *************** function _LCD_Init *****************
  2163 ;; Defined at:
  2164 ;;		line 60 in file "lcd.c"
  2165 ;; Parameters:    Size  Location     Type
  2166 ;;  display         5    6[BANK1 ] struct .
  2167 ;; Auto vars:     Size  Location     Type
  2168 ;;  cmd             1   13[BANK1 ] unsigned char 
  2169 ;; Return value:  Size  Location     Type
  2170 ;;                  1    wreg      _Bool 
  2171 ;; Registers used:
  2172 ;;		wreg, fsr0l, fsr0h, status,2, status,0, btemp+1, pclath, cstack
  2173 ;; Tracked objects:
  2174 ;;		On entry : 0/0
  2175 ;;		On exit  : 0/0
  2176 ;;		Unchanged: 0/0
  2177 ;; Data sizes:     COMMON   BANK0   BANK1   BANK3   BANK2
  2178 ;;      Params:         0       0       5       0       0
  2179 ;;      Locals:         0       0       1       0       0
  2180 ;;      Temps:          0       0       2       0       0
  2181 ;;      Totals:         0       0       8       0       0
  2182 ;;Total ram usage:        8 bytes
  2183 ;; Hardware stack levels used: 1
  2184 ;; Hardware stack levels required when called: 5
  2185 ;; This function calls:
  2186 ;;		_LCD_Write
  2187 ;; This function is called by:
  2188 ;;		_main
  2189 ;; This function uses a non-reentrant model
  2190 ;;
  2191                           
  2192     0D55                     _LCD_Init:	
  2193                           ;psect for function _LCD_Init
  2194                           
  2195     0D55                     l1901:	
  2196                           ;incstack = 0
  2197                           ; Regs used in _LCD_Init: [wreg-fsr0h+status,2+status,0+btemp+1+pclath+cstack]
  2198                           
  2199                           
  2200                           ;lcd.c: 62:     lcd = display;
  2201     0D55  30B3               	movlw	_lcd& (0+255)
  2202     0D56  0084               	movwf	4
  2203     0D57  1683               	bsf	3,5	;RP0=1, select bank1
  2204     0D58  1303               	bcf	3,6	;RP1=0, select bank1
  2205     0D59  0826               	movf	LCD_Init@display^(0+128),w
  2206     0D5A  1383               	bcf	3,7	;select IRP bank1
  2207     0D5B  0080               	movwf	0
  2208     0D5C  0A84               	incf	4,f
  2209     0D5D  0827               	movf	(LCD_Init@display^(0+128)+1),w
  2210     0D5E  0080               	movwf	0
  2211     0D5F  0A84               	incf	4,f
  2212     0D60  0828               	movf	(LCD_Init@display^(0+128)+2),w
  2213     0D61  0080               	movwf	0
  2214     0D62  0A84               	incf	4,f
  2215     0D63  0829               	movf	(LCD_Init@display^(0+128)+3),w
  2216     0D64  0080               	movwf	0
  2217     0D65  0A84               	incf	4,f
  2218     0D66  082A               	movf	(LCD_Init@display^(0+128)+4),w
  2219     0D67  0080               	movwf	0
  2220     0D68                     l1903:
  2221                           
  2222                           ;lcd.c: 71:     if ( lcd.PORT == &PORTA ) {
  2223     0D68  3000               	movlw	0
  2224     0D69  0634               	xorwf	(_lcd+1)^(0+128),w
  2225     0D6A  1D03               	skipz
  2226     0D6B  2D6E               	goto	u1885
  2227     0D6C  3005               	movlw	5
  2228     0D6D  0633               	xorwf	_lcd^(0+128),w
  2229     0D6E                     u1885:
  2230     0D6E  1D03               	skipz
  2231     0D6F  2D71               	goto	u1881
  2232     0D70  2D72               	goto	u1880
  2233     0D71                     u1881:
  2234     0D71  2D74               	goto	l1907
  2235     0D72                     u1880:
  2236     0D72                     l1905:
  2237                           
  2238                           ;lcd.c: 72:         TRISA = 0x00;
  2239     0D72  0185               	clrf	5	;volatile
  2240                           
  2241                           ;lcd.c: 73:     }
  2242     0D73  2DA3               	goto	l1923
  2243     0D74                     l1907:
  2244     0D74  3000               	movlw	0
  2245     0D75  0634               	xorwf	(_lcd+1)^(0+128),w
  2246     0D76  1D03               	skipz
  2247     0D77  2D7A               	goto	u1895
  2248     0D78  3006               	movlw	6
  2249     0D79  0633               	xorwf	_lcd^(0+128),w
  2250     0D7A                     u1895:
  2251     0D7A  1D03               	skipz
  2252     0D7B  2D7D               	goto	u1891
  2253     0D7C  2D7E               	goto	u1890
  2254     0D7D                     u1891:
  2255     0D7D  2D80               	goto	l1911
  2256     0D7E                     u1890:
  2257     0D7E                     l1909:
  2258                           
  2259                           ;lcd.c: 75:         TRISB = 0x00;
  2260     0D7E  0186               	clrf	6	;volatile
  2261                           
  2262                           ;lcd.c: 76:     }
  2263     0D7F  2DA3               	goto	l1923
  2264     0D80                     l1911:
  2265     0D80  3000               	movlw	0
  2266     0D81  0634               	xorwf	(_lcd+1)^(0+128),w
  2267     0D82  1D03               	skipz
  2268     0D83  2D86               	goto	u1905
  2269     0D84  3007               	movlw	7
  2270     0D85  0633               	xorwf	_lcd^(0+128),w
  2271     0D86                     u1905:
  2272     0D86  1D03               	skipz
  2273     0D87  2D89               	goto	u1901
  2274     0D88  2D8A               	goto	u1900
  2275     0D89                     u1901:
  2276     0D89  2D8C               	goto	l1915
  2277     0D8A                     u1900:
  2278     0D8A                     l1913:
  2279                           
  2280                           ;lcd.c: 78:         TRISC = 0x00;
  2281     0D8A  0187               	clrf	7	;volatile
  2282                           
  2283                           ;lcd.c: 79:     }
  2284     0D8B  2DA3               	goto	l1923
  2285     0D8C                     l1915:
  2286     0D8C  3000               	movlw	0
  2287     0D8D  0634               	xorwf	(_lcd+1)^(0+128),w
  2288     0D8E  1D03               	skipz
  2289     0D8F  2D92               	goto	u1915
  2290     0D90  3008               	movlw	8
  2291     0D91  0633               	xorwf	_lcd^(0+128),w
  2292     0D92                     u1915:
  2293     0D92  1D03               	skipz
  2294     0D93  2D95               	goto	u1911
  2295     0D94  2D96               	goto	u1910
  2296     0D95                     u1911:
  2297     0D95  2D98               	goto	l1919
  2298     0D96                     u1910:
  2299     0D96                     l1917:
  2300                           
  2301                           ;lcd.c: 82:         TRISD = 0x00;
  2302     0D96  0188               	clrf	8	;volatile
  2303                           
  2304                           ;lcd.c: 83:     }
  2305     0D97  2DA3               	goto	l1923
  2306     0D98                     l1919:
  2307     0D98  3000               	movlw	0
  2308     0D99  0634               	xorwf	(_lcd+1)^(0+128),w
  2309     0D9A  1D03               	skipz
  2310     0D9B  2D9E               	goto	u1925
  2311     0D9C  3009               	movlw	9
  2312     0D9D  0633               	xorwf	_lcd^(0+128),w
  2313     0D9E                     u1925:
  2314     0D9E  1D03               	skipz
  2315     0D9F  2DA1               	goto	u1921
  2316     0DA0  2DA2               	goto	u1920
  2317     0DA1                     u1921:
  2318     0DA1  2E1A               	goto	l295
  2319     0DA2                     u1920:
  2320     0DA2                     l1921:
  2321                           
  2322                           ;lcd.c: 85:         TRISE = 0x00;
  2323     0DA2  0189               	clrf	9	;volatile
  2324     0DA3                     l1923:	
  2325                           ;lcd.c: 86:     }
  2326                           
  2327                           
  2328                           ;lcd.c: 93:     _delay((unsigned long)((20)*(8000000/4000.0)));
  2329     0DA3  3034               	movlw	52
  2330     0DA4  1683               	bsf	3,5	;RP0=1, select bank1
  2331     0DA5  1303               	bcf	3,6	;RP1=0, select bank1
  2332     0DA6  00AC               	movwf	(??_LCD_Init^(0+128)+1)
  2333     0DA7  30F1               	movlw	241
  2334     0DA8  00AB               	movwf	??_LCD_Init^(0+128)
  2335     0DA9                     u3287:
  2336     0DA9  0BAB               	decfsz	??_LCD_Init^(0+128),f
  2337     0DAA  2DA9               	goto	u3287
  2338     0DAB  0BAC               	decfsz	(??_LCD_Init^(0+128)+1),f
  2339     0DAC  2DA9               	goto	u3287
  2340     0DAD                     l1925:
  2341                           
  2342                           ;lcd.c: 96:     LCD_Write(0x03);
  2343     0DAD  3003               	movlw	3
  2344     0DAE  120A  158A  22BD  120A  158A  	fcall	_LCD_Write
  2345     0DB3                     l1927:
  2346                           
  2347                           ;lcd.c: 97:     _delay((unsigned long)((5)*(8000000/4000.0)));
  2348     0DB3  300D               	movlw	13
  2349     0DB4  1683               	bsf	3,5	;RP0=1, select bank1
  2350     0DB5  1303               	bcf	3,6	;RP1=0, select bank1
  2351     0DB6  00AC               	movwf	(??_LCD_Init^(0+128)+1)
  2352     0DB7  30FB               	movlw	251
  2353     0DB8  00AB               	movwf	??_LCD_Init^(0+128)
  2354     0DB9                     u3297:
  2355     0DB9  0BAB               	decfsz	??_LCD_Init^(0+128),f
  2356     0DBA  2DB9               	goto	u3297
  2357     0DBB  0BAC               	decfsz	(??_LCD_Init^(0+128)+1),f
  2358     0DBC  2DB9               	goto	u3297
  2359                           
  2360                           ;lcd.c: 98:     LCD_Write(0x03);
  2361     0DBD  3003               	movlw	3
  2362     0DBE  120A  158A  22BD  120A  158A  	fcall	_LCD_Write
  2363     0DC3                     l1929:
  2364                           
  2365                           ;lcd.c: 99:     _delay((unsigned long)((16)*(8000000/4000.0)));
  2366     0DC3  302A               	movlw	42
  2367     0DC4  1683               	bsf	3,5	;RP0=1, select bank1
  2368     0DC5  1303               	bcf	3,6	;RP1=0, select bank1
  2369     0DC6  00AC               	movwf	(??_LCD_Init^(0+128)+1)
  2370     0DC7  308D               	movlw	141
  2371     0DC8  00AB               	movwf	??_LCD_Init^(0+128)
  2372     0DC9                     u3307:
  2373     0DC9  0BAB               	decfsz	??_LCD_Init^(0+128),f
  2374     0DCA  2DC9               	goto	u3307
  2375     0DCB  0BAC               	decfsz	(??_LCD_Init^(0+128)+1),f
  2376     0DCC  2DC9               	goto	u3307
  2377     0DCD                     l1931:
  2378                           
  2379                           ;lcd.c: 100:     LCD_Write(0x03);
  2380     0DCD  3003               	movlw	3
  2381     0DCE  120A  158A  22BD  120A  158A  	fcall	_LCD_Write
  2382     0DD3                     l1933:
  2383                           
  2384                           ;lcd.c: 103:     LCD_Write(0x02);
  2385     0DD3  3002               	movlw	2
  2386     0DD4  120A  158A  22BD  120A  158A  	fcall	_LCD_Write
  2387     0DD9                     l1935:
  2388     0DD9  3002               	movlw	2
  2389     0DDA  120A  158A  22BD  120A  158A  	fcall	_LCD_Write
  2390     0DDF                     l1937:
  2391     0DDF  3008               	movlw	8
  2392     0DE0  120A  158A  22BD  120A  158A  	fcall	_LCD_Write
  2393     0DE5                     l1939:
  2394     0DE5  3000               	movlw	0
  2395     0DE6  120A  158A  22BD  120A  158A  	fcall	_LCD_Write
  2396     0DEB                     l1941:
  2397     0DEB  3006               	movlw	6
  2398     0DEC  120A  158A  22BD  120A  158A  	fcall	_LCD_Write
  2399     0DF1                     l1943:
  2400     0DF1  3008               	movlw	8
  2401     0DF2  1683               	bsf	3,5	;RP0=1, select bank1
  2402     0DF3  1303               	bcf	3,6	;RP1=0, select bank1
  2403     0DF4  00AD               	movwf	LCD_Init@cmd^(0+128)
  2404     0DF5                     l1945:
  2405     0DF5  152D               	bsf	LCD_Init@cmd^(0+128),2
  2406     0DF6                     l1951:
  2407     0DF6  082D               	movf	LCD_Init@cmd^(0+128),w
  2408     0DF7  00AB               	movwf	??_LCD_Init^(0+128)
  2409     0DF8  3004               	movlw	4
  2410     0DF9                     u1935:
  2411     0DF9  1003               	clrc
  2412     0DFA  0CAB               	rrf	??_LCD_Init^(0+128),f
  2413     0DFB  3EFF               	addlw	-1
  2414     0DFC  1D03               	skipz
  2415     0DFD  2DF9               	goto	u1935
  2416     0DFE  082B               	movf	??_LCD_Init^(0+128),w
  2417     0DFF  390F               	andlw	15
  2418     0E00  120A  158A  22BD  120A  158A  	fcall	_LCD_Write
  2419     0E05  1683               	bsf	3,5	;RP0=1, select bank1
  2420     0E06  1303               	bcf	3,6	;RP1=0, select bank1
  2421     0E07  082D               	movf	LCD_Init@cmd^(0+128),w
  2422     0E08  390F               	andlw	15
  2423     0E09  120A  158A  22BD  120A  158A  	fcall	_LCD_Write
  2424     0E0E                     l307:	
  2425                           ;lcd.c: 113:     do { LCD_Write( (0x01 & 0xF0) >> 4 ); LCD_Write( 0x01 & 0x0F); } while 
      +                          ( 0 );
  2426                           
  2427     0E0E  3000               	movlw	0
  2428     0E0F  120A  158A  22BD  120A  158A  	fcall	_LCD_Write
  2429     0E14  3001               	movlw	1
  2430     0E15  120A  158A  22BD  120A  158A  	fcall	_LCD_Write
  2431     0E1A                     l295:
  2432     0E1A  0008               	return
  2433     0E1B                     __end_of_LCD_Init:
  2434                           
  2435                           	psect	text6
  2436     0ABD                     __ptext6:	
  2437 ;; *************** function _LCD_Write *****************
  2438 ;; Defined at:
  2439 ;;		line 49 in file "lcd.c"
  2440 ;; Parameters:    Size  Location     Type
  2441 ;;  c               1    wreg     unsigned char 
  2442 ;; Auto vars:     Size  Location     Type
  2443 ;;  c               1    5[BANK1 ] unsigned char 
  2444 ;; Return value:  Size  Location     Type
  2445 ;;                  1    wreg      void 
  2446 ;; Registers used:
  2447 ;;		wreg, fsr0l, fsr0h, status,2, status,0, btemp+1, pclath, cstack
  2448 ;; Tracked objects:
  2449 ;;		On entry : 0/0
  2450 ;;		On exit  : 0/0
  2451 ;;		Unchanged: 0/0
  2452 ;; Data sizes:     COMMON   BANK0   BANK1   BANK3   BANK2
  2453 ;;      Params:         0       0       0       0       0
  2454 ;;      Locals:         0       0       1       0       0
  2455 ;;      Temps:          0       0       2       0       0
  2456 ;;      Totals:         0       0       3       0       0
  2457 ;;Total ram usage:        3 bytes
  2458 ;; Hardware stack levels used: 1
  2459 ;; Hardware stack levels required when called: 4
  2460 ;; This function calls:
  2461 ;;		_LCD_Out
  2462 ;; This function is called by:
  2463 ;;		_main
  2464 ;;		_LCD_Init
  2465 ;; This function uses a non-reentrant model
  2466 ;;
  2467                           
  2468     0ABD                     _LCD_Write:	
  2469                           ;psect for function _LCD_Write
  2470                           
  2471                           
  2472                           ;incstack = 0
  2473                           ; Regs used in _LCD_Write: [wreg-fsr0h+status,2+status,0+btemp+1+pclath+cstack]
  2474                           ;LCD_Write@c stored from wreg
  2475     0ABD  1683               	bsf	3,5	;RP0=1, select bank1
  2476     0ABE  1303               	bcf	3,6	;RP1=0, select bank1
  2477     0ABF  00A5               	movwf	LCD_Write@c^(0+128)
  2478     0AC0                     l1823:
  2479                           
  2480                           ;lcd.c: 51:     *(lcd.PORT) &= ~(1 << lcd.RS);
  2481     0AC0  3001               	movlw	1
  2482     0AC1  00A3               	movwf	??_LCD_Write^(0+128)
  2483     0AC2  0835               	movf	(_lcd^(0+128)+2),w
  2484     0AC3  3907               	andlw	7
  2485     0AC4  3E01               	addlw	1
  2486     0AC5  2AC8               	goto	u1744
  2487     0AC6                     u1745:
  2488     0AC6  1003               	clrc
  2489     0AC7  0DA3               	rlf	??_LCD_Write^(0+128),f
  2490     0AC8                     u1744:
  2491     0AC8  3EFF               	addlw	-1
  2492     0AC9  1D03               	skipz
  2493     0ACA  2AC6               	goto	u1745
  2494     0ACB  0823               	movf	??_LCD_Write^(0+128),w
  2495     0ACC  3AFF               	xorlw	255
  2496     0ACD  00FF               	movwf	btemp+1
  2497     0ACE  0833               	movf	_lcd^(0+128),w
  2498     0ACF  0084               	movwf	4
  2499     0AD0  1783               	bsf	3,7
  2500     0AD1  1C34               	btfss	(_lcd+1)^(0+128),0
  2501     0AD2  1383               	bcf	3,7
  2502     0AD3  087F               	movf	btemp+1,w
  2503     0AD4  0580               	andwf	0,f
  2504     0AD5                     l1825:
  2505                           
  2506                           ;lcd.c: 52:     LCD_Out(c);
  2507     0AD5  0825               	movf	LCD_Write@c^(0+128),w
  2508     0AD6  120A  158A  261B  120A  158A  	fcall	_LCD_Out
  2509     0ADB                     l1827:
  2510                           
  2511                           ;lcd.c: 54:     *(lcd.PORT) |= 1 << lcd.EN;
  2512     0ADB  3001               	movlw	1
  2513     0ADC  1683               	bsf	3,5	;RP0=1, select bank1
  2514     0ADD  1303               	bcf	3,6	;RP1=0, select bank1
  2515     0ADE  00A3               	movwf	??_LCD_Write^(0+128)
  2516     0ADF  0C35               	rrf	(_lcd^(0+128)+2),w
  2517     0AE0  00A4               	movwf	(??_LCD_Write+1)^(0+128)
  2518     0AE1  0CA4               	rrf	(??_LCD_Write+1)^(0+128),f
  2519     0AE2  0C24               	rrf	(??_LCD_Write+1)^(0+128),w
  2520     0AE3  3907               	andlw	7
  2521     0AE4  3E01               	addlw	1
  2522     0AE5  2AE8               	goto	u1754
  2523     0AE6                     u1755:
  2524     0AE6  1003               	clrc
  2525     0AE7  0DA3               	rlf	??_LCD_Write^(0+128),f
  2526     0AE8                     u1754:
  2527     0AE8  3EFF               	addlw	-1
  2528     0AE9  1D03               	skipz
  2529     0AEA  2AE6               	goto	u1755
  2530     0AEB  0823               	movf	??_LCD_Write^(0+128),w
  2531     0AEC  00FF               	movwf	btemp+1
  2532     0AED  0833               	movf	_lcd^(0+128),w
  2533     0AEE  0084               	movwf	4
  2534     0AEF  1783               	bsf	3,7
  2535     0AF0  1C34               	btfss	(_lcd+1)^(0+128),0
  2536     0AF1  1383               	bcf	3,7
  2537     0AF2  087F               	movf	btemp+1,w
  2538     0AF3  0480               	iorwf	0,f
  2539     0AF4                     l1829:
  2540                           
  2541                           ;lcd.c: 55:     _delay((unsigned long)((4)*(8000000/4000.0)));
  2542     0AF4  300B               	movlw	11
  2543     0AF5  1683               	bsf	3,5	;RP0=1, select bank1
  2544     0AF6  1303               	bcf	3,6	;RP1=0, select bank1
  2545     0AF7  00A4               	movwf	(??_LCD_Write^(0+128)+1)
  2546     0AF8  3061               	movlw	97
  2547     0AF9  00A3               	movwf	??_LCD_Write^(0+128)
  2548     0AFA                     u3317:
  2549     0AFA  0BA3               	decfsz	??_LCD_Write^(0+128),f
  2550     0AFB  2AFA               	goto	u3317
  2551     0AFC  0BA4               	decfsz	(??_LCD_Write^(0+128)+1),f
  2552     0AFD  2AFA               	goto	u3317
  2553     0AFE  2AFF               	nop2
  2554     0AFF                     l1831:
  2555                           
  2556                           ;lcd.c: 56:     *(lcd.PORT) &= ~(1 << lcd.EN);
  2557     0AFF  3001               	movlw	1
  2558     0B00  1683               	bsf	3,5	;RP0=1, select bank1
  2559     0B01  1303               	bcf	3,6	;RP1=0, select bank1
  2560     0B02  00A3               	movwf	??_LCD_Write^(0+128)
  2561     0B03  0C35               	rrf	(_lcd^(0+128)+2),w
  2562     0B04  00A4               	movwf	(??_LCD_Write+1)^(0+128)
  2563     0B05  0CA4               	rrf	(??_LCD_Write+1)^(0+128),f
  2564     0B06  0C24               	rrf	(??_LCD_Write+1)^(0+128),w
  2565     0B07  3907               	andlw	7
  2566     0B08  3E01               	addlw	1
  2567     0B09  2B0C               	goto	u1764
  2568     0B0A                     u1765:
  2569     0B0A  1003               	clrc
  2570     0B0B  0DA3               	rlf	??_LCD_Write^(0+128),f
  2571     0B0C                     u1764:
  2572     0B0C  3EFF               	addlw	-1
  2573     0B0D  1D03               	skipz
  2574     0B0E  2B0A               	goto	u1765
  2575     0B0F  0823               	movf	??_LCD_Write^(0+128),w
  2576     0B10  3AFF               	xorlw	255
  2577     0B11  00FF               	movwf	btemp+1
  2578     0B12  0833               	movf	_lcd^(0+128),w
  2579     0B13  0084               	movwf	4
  2580     0B14  1783               	bsf	3,7
  2581     0B15  1C34               	btfss	(_lcd+1)^(0+128),0
  2582     0B16  1383               	bcf	3,7
  2583     0B17  087F               	movf	btemp+1,w
  2584     0B18  0580               	andwf	0,f
  2585     0B19                     l282:
  2586     0B19  0008               	return
  2587     0B1A                     __end_of_LCD_Write:
  2588                           
  2589                           	psect	text7
  2590     0E1B                     __ptext7:	
  2591 ;; *************** function _LCD_Out *****************
  2592 ;; Defined at:
  2593 ;;		line 17 in file "lcd.c"
  2594 ;; Parameters:    Size  Location     Type
  2595 ;;  c               1    wreg     unsigned char 
  2596 ;; Auto vars:     Size  Location     Type
  2597 ;;  c               1    2[BANK1 ] unsigned char 
  2598 ;; Return value:  Size  Location     Type
  2599 ;;                  1    wreg      void 
  2600 ;; Registers used:
  2601 ;;		wreg, fsr0l, fsr0h, status,2, status,0, btemp+1
  2602 ;; Tracked objects:
  2603 ;;		On entry : 0/0
  2604 ;;		On exit  : 0/0
  2605 ;;		Unchanged: 0/0
  2606 ;; Data sizes:     COMMON   BANK0   BANK1   BANK3   BANK2
  2607 ;;      Params:         0       0       0       0       0
  2608 ;;      Locals:         0       0       1       0       0
  2609 ;;      Temps:          0       0       2       0       0
  2610 ;;      Totals:         0       0       3       0       0
  2611 ;;Total ram usage:        3 bytes
  2612 ;; Hardware stack levels used: 1
  2613 ;; Hardware stack levels required when called: 3
  2614 ;; This function calls:
  2615 ;;		Nothing
  2616 ;; This function is called by:
  2617 ;;		_LCD_Write
  2618 ;;		_LCD_putc
  2619 ;; This function uses a non-reentrant model
  2620 ;;
  2621                           
  2622     0E1B                     _LCD_Out:	
  2623                           ;psect for function _LCD_Out
  2624                           
  2625                           
  2626                           ;incstack = 0
  2627                           ; Regs used in _LCD_Out: [wreg-fsr0h+status,2+status,0+btemp+1]
  2628                           ;LCD_Out@c stored from wreg
  2629     0E1B  1683               	bsf	3,5	;RP0=1, select bank1
  2630     0E1C  1303               	bcf	3,6	;RP1=0, select bank1
  2631     0E1D  00A2               	movwf	LCD_Out@c^(0+128)
  2632     0E1E                     l1799:
  2633                           
  2634                           ;lcd.c: 19:     if ( c & 1 ){
  2635     0E1E  1C22               	btfss	LCD_Out@c^(0+128),0
  2636     0E1F  2E21               	goto	u1621
  2637     0E20  2E22               	goto	u1620
  2638     0E21                     u1621:
  2639     0E21  2E37               	goto	l1803
  2640     0E22                     u1620:
  2641     0E22                     l1801:
  2642                           
  2643                           ;lcd.c: 20:         *(lcd.PORT) |= 1 << lcd.D4;
  2644     0E22  3001               	movlw	1
  2645     0E23  00A0               	movwf	??_LCD_Out^(0+128)
  2646     0E24  0836               	movf	(_lcd^(0+128)+3),w
  2647     0E25  3907               	andlw	7
  2648     0E26  3E01               	addlw	1
  2649     0E27  2E2A               	goto	u1634
  2650     0E28                     u1635:
  2651     0E28  1003               	clrc
  2652     0E29  0DA0               	rlf	??_LCD_Out^(0+128),f
  2653     0E2A                     u1634:
  2654     0E2A  3EFF               	addlw	-1
  2655     0E2B  1D03               	skipz
  2656     0E2C  2E28               	goto	u1635
  2657     0E2D  0820               	movf	??_LCD_Out^(0+128),w
  2658     0E2E  00FF               	movwf	btemp+1
  2659     0E2F  0833               	movf	_lcd^(0+128),w
  2660     0E30  0084               	movwf	4
  2661     0E31  1783               	bsf	3,7
  2662     0E32  1C34               	btfss	(_lcd+1)^(0+128),0
  2663     0E33  1383               	bcf	3,7
  2664     0E34  087F               	movf	btemp+1,w
  2665     0E35  0480               	iorwf	0,f
  2666                           
  2667                           ;lcd.c: 21:     }
  2668     0E36  2E4C               	goto	l1805
  2669     0E37                     l1803:
  2670                           
  2671                           ;lcd.c: 23:          *(lcd.PORT) &= ~(1 << lcd.D4);
  2672     0E37  3001               	movlw	1
  2673     0E38  00A0               	movwf	??_LCD_Out^(0+128)
  2674     0E39  0836               	movf	(_lcd^(0+128)+3),w
  2675     0E3A  3907               	andlw	7
  2676     0E3B  3E01               	addlw	1
  2677     0E3C  2E3F               	goto	u1644
  2678     0E3D                     u1645:
  2679     0E3D  1003               	clrc
  2680     0E3E  0DA0               	rlf	??_LCD_Out^(0+128),f
  2681     0E3F                     u1644:
  2682     0E3F  3EFF               	addlw	-1
  2683     0E40  1D03               	skipz
  2684     0E41  2E3D               	goto	u1645
  2685     0E42  0820               	movf	??_LCD_Out^(0+128),w
  2686     0E43  3AFF               	xorlw	255
  2687     0E44  00FF               	movwf	btemp+1
  2688     0E45  0833               	movf	_lcd^(0+128),w
  2689     0E46  0084               	movwf	4
  2690     0E47  1783               	bsf	3,7
  2691     0E48  1C34               	btfss	(_lcd+1)^(0+128),0
  2692     0E49  1383               	bcf	3,7
  2693     0E4A  087F               	movf	btemp+1,w
  2694     0E4B  0580               	andwf	0,f
  2695     0E4C                     l1805:
  2696                           
  2697                           ;lcd.c: 26:     if ( c & 2 ) {
  2698     0E4C  1CA2               	btfss	LCD_Out@c^(0+128),1
  2699     0E4D  2E4F               	goto	u1651
  2700     0E4E  2E50               	goto	u1650
  2701     0E4F                     u1651:
  2702     0E4F  2E68               	goto	l1809
  2703     0E50                     u1650:
  2704     0E50                     l1807:
  2705                           
  2706                           ;lcd.c: 27:         *(lcd.PORT) |= 1 << lcd.D5;
  2707     0E50  3001               	movlw	1
  2708     0E51  00A0               	movwf	??_LCD_Out^(0+128)
  2709     0E52  0C36               	rrf	(_lcd^(0+128)+3),w
  2710     0E53  00A1               	movwf	(??_LCD_Out+1)^(0+128)
  2711     0E54  0CA1               	rrf	(??_LCD_Out+1)^(0+128),f
  2712     0E55  0C21               	rrf	(??_LCD_Out+1)^(0+128),w
  2713     0E56  3907               	andlw	7
  2714     0E57  3E01               	addlw	1
  2715     0E58  2E5B               	goto	u1664
  2716     0E59                     u1665:
  2717     0E59  1003               	clrc
  2718     0E5A  0DA0               	rlf	??_LCD_Out^(0+128),f
  2719     0E5B                     u1664:
  2720     0E5B  3EFF               	addlw	-1
  2721     0E5C  1D03               	skipz
  2722     0E5D  2E59               	goto	u1665
  2723     0E5E  0820               	movf	??_LCD_Out^(0+128),w
  2724     0E5F  00FF               	movwf	btemp+1
  2725     0E60  0833               	movf	_lcd^(0+128),w
  2726     0E61  0084               	movwf	4
  2727     0E62  1783               	bsf	3,7
  2728     0E63  1C34               	btfss	(_lcd+1)^(0+128),0
  2729     0E64  1383               	bcf	3,7
  2730     0E65  087F               	movf	btemp+1,w
  2731     0E66  0480               	iorwf	0,f
  2732                           
  2733                           ;lcd.c: 28:     }
  2734     0E67  2E80               	goto	l1811
  2735     0E68                     l1809:
  2736                           
  2737                           ;lcd.c: 30:         *(lcd.PORT) &= ~(1 << lcd.D5);
  2738     0E68  3001               	movlw	1
  2739     0E69  00A0               	movwf	??_LCD_Out^(0+128)
  2740     0E6A  0C36               	rrf	(_lcd^(0+128)+3),w
  2741     0E6B  00A1               	movwf	(??_LCD_Out+1)^(0+128)
  2742     0E6C  0CA1               	rrf	(??_LCD_Out+1)^(0+128),f
  2743     0E6D  0C21               	rrf	(??_LCD_Out+1)^(0+128),w
  2744     0E6E  3907               	andlw	7
  2745     0E6F  3E01               	addlw	1
  2746     0E70  2E73               	goto	u1674
  2747     0E71                     u1675:
  2748     0E71  1003               	clrc
  2749     0E72  0DA0               	rlf	??_LCD_Out^(0+128),f
  2750     0E73                     u1674:
  2751     0E73  3EFF               	addlw	-1
  2752     0E74  1D03               	skipz
  2753     0E75  2E71               	goto	u1675
  2754     0E76  0820               	movf	??_LCD_Out^(0+128),w
  2755     0E77  3AFF               	xorlw	255
  2756     0E78  00FF               	movwf	btemp+1
  2757     0E79  0833               	movf	_lcd^(0+128),w
  2758     0E7A  0084               	movwf	4
  2759     0E7B  1783               	bsf	3,7
  2760     0E7C  1C34               	btfss	(_lcd+1)^(0+128),0
  2761     0E7D  1383               	bcf	3,7
  2762     0E7E  087F               	movf	btemp+1,w
  2763     0E7F  0580               	andwf	0,f
  2764     0E80                     l1811:
  2765                           
  2766                           ;lcd.c: 33:     if ( c & 4 ) {
  2767     0E80  1D22               	btfss	LCD_Out@c^(0+128),2
  2768     0E81  2E83               	goto	u1681
  2769     0E82  2E84               	goto	u1680
  2770     0E83                     u1681:
  2771     0E83  2E99               	goto	l1815
  2772     0E84                     u1680:
  2773     0E84                     l1813:
  2774                           
  2775                           ;lcd.c: 34:         *(lcd.PORT) |= 1 << lcd.D6;
  2776     0E84  3001               	movlw	1
  2777     0E85  00A0               	movwf	??_LCD_Out^(0+128)
  2778     0E86  0837               	movf	(_lcd^(0+128)+4),w
  2779     0E87  3907               	andlw	7
  2780     0E88  3E01               	addlw	1
  2781     0E89  2E8C               	goto	u1694
  2782     0E8A                     u1695:
  2783     0E8A  1003               	clrc
  2784     0E8B  0DA0               	rlf	??_LCD_Out^(0+128),f
  2785     0E8C                     u1694:
  2786     0E8C  3EFF               	addlw	-1
  2787     0E8D  1D03               	skipz
  2788     0E8E  2E8A               	goto	u1695
  2789     0E8F  0820               	movf	??_LCD_Out^(0+128),w
  2790     0E90  00FF               	movwf	btemp+1
  2791     0E91  0833               	movf	_lcd^(0+128),w
  2792     0E92  0084               	movwf	4
  2793     0E93  1783               	bsf	3,7
  2794     0E94  1C34               	btfss	(_lcd+1)^(0+128),0
  2795     0E95  1383               	bcf	3,7
  2796     0E96  087F               	movf	btemp+1,w
  2797     0E97  0480               	iorwf	0,f
  2798                           
  2799                           ;lcd.c: 35:     }
  2800     0E98  2EAE               	goto	l1817
  2801     0E99                     l1815:
  2802                           
  2803                           ;lcd.c: 37:         *(lcd.PORT) &= ~(1 << lcd.D6);
  2804     0E99  3001               	movlw	1
  2805     0E9A  00A0               	movwf	??_LCD_Out^(0+128)
  2806     0E9B  0837               	movf	(_lcd^(0+128)+4),w
  2807     0E9C  3907               	andlw	7
  2808     0E9D  3E01               	addlw	1
  2809     0E9E  2EA1               	goto	u1704
  2810     0E9F                     u1705:
  2811     0E9F  1003               	clrc
  2812     0EA0  0DA0               	rlf	??_LCD_Out^(0+128),f
  2813     0EA1                     u1704:
  2814     0EA1  3EFF               	addlw	-1
  2815     0EA2  1D03               	skipz
  2816     0EA3  2E9F               	goto	u1705
  2817     0EA4  0820               	movf	??_LCD_Out^(0+128),w
  2818     0EA5  3AFF               	xorlw	255
  2819     0EA6  00FF               	movwf	btemp+1
  2820     0EA7  0833               	movf	_lcd^(0+128),w
  2821     0EA8  0084               	movwf	4
  2822     0EA9  1783               	bsf	3,7
  2823     0EAA  1C34               	btfss	(_lcd+1)^(0+128),0
  2824     0EAB  1383               	bcf	3,7
  2825     0EAC  087F               	movf	btemp+1,w
  2826     0EAD  0580               	andwf	0,f
  2827     0EAE                     l1817:
  2828                           
  2829                           ;lcd.c: 40:     if ( c & 8 ) {
  2830     0EAE  1DA2               	btfss	LCD_Out@c^(0+128),3
  2831     0EAF  2EB1               	goto	u1711
  2832     0EB0  2EB2               	goto	u1710
  2833     0EB1                     u1711:
  2834     0EB1  2ECA               	goto	l1821
  2835     0EB2                     u1710:
  2836     0EB2                     l1819:
  2837                           
  2838                           ;lcd.c: 41:          *(lcd.PORT) |= 1 << lcd.D7;
  2839     0EB2  3001               	movlw	1
  2840     0EB3  00A0               	movwf	??_LCD_Out^(0+128)
  2841     0EB4  0C37               	rrf	(_lcd^(0+128)+4),w
  2842     0EB5  00A1               	movwf	(??_LCD_Out+1)^(0+128)
  2843     0EB6  0CA1               	rrf	(??_LCD_Out+1)^(0+128),f
  2844     0EB7  0C21               	rrf	(??_LCD_Out+1)^(0+128),w
  2845     0EB8  3907               	andlw	7
  2846     0EB9  3E01               	addlw	1
  2847     0EBA  2EBD               	goto	u1724
  2848     0EBB                     u1725:
  2849     0EBB  1003               	clrc
  2850     0EBC  0DA0               	rlf	??_LCD_Out^(0+128),f
  2851     0EBD                     u1724:
  2852     0EBD  3EFF               	addlw	-1
  2853     0EBE  1D03               	skipz
  2854     0EBF  2EBB               	goto	u1725
  2855     0EC0  0820               	movf	??_LCD_Out^(0+128),w
  2856     0EC1  00FF               	movwf	btemp+1
  2857     0EC2  0833               	movf	_lcd^(0+128),w
  2858     0EC3  0084               	movwf	4
  2859     0EC4  1783               	bsf	3,7
  2860     0EC5  1C34               	btfss	(_lcd+1)^(0+128),0
  2861     0EC6  1383               	bcf	3,7
  2862     0EC7  087F               	movf	btemp+1,w
  2863     0EC8  0480               	iorwf	0,f
  2864                           
  2865                           ;lcd.c: 42:     }
  2866     0EC9  2EE2               	goto	l279
  2867     0ECA                     l1821:
  2868                           
  2869                           ;lcd.c: 44:          *(lcd.PORT) &= ~(1 << lcd.D7);
  2870     0ECA  3001               	movlw	1
  2871     0ECB  00A0               	movwf	??_LCD_Out^(0+128)
  2872     0ECC  0C37               	rrf	(_lcd^(0+128)+4),w
  2873     0ECD  00A1               	movwf	(??_LCD_Out+1)^(0+128)
  2874     0ECE  0CA1               	rrf	(??_LCD_Out+1)^(0+128),f
  2875     0ECF  0C21               	rrf	(??_LCD_Out+1)^(0+128),w
  2876     0ED0  3907               	andlw	7
  2877     0ED1  3E01               	addlw	1
  2878     0ED2  2ED5               	goto	u1734
  2879     0ED3                     u1735:
  2880     0ED3  1003               	clrc
  2881     0ED4  0DA0               	rlf	??_LCD_Out^(0+128),f
  2882     0ED5                     u1734:
  2883     0ED5  3EFF               	addlw	-1
  2884     0ED6  1D03               	skipz
  2885     0ED7  2ED3               	goto	u1735
  2886     0ED8  0820               	movf	??_LCD_Out^(0+128),w
  2887     0ED9  3AFF               	xorlw	255
  2888     0EDA  00FF               	movwf	btemp+1
  2889     0EDB  0833               	movf	_lcd^(0+128),w
  2890     0EDC  0084               	movwf	4
  2891     0EDD  1783               	bsf	3,7
  2892     0EDE  1C34               	btfss	(_lcd+1)^(0+128),0
  2893     0EDF  1383               	bcf	3,7
  2894     0EE0  087F               	movf	btemp+1,w
  2895     0EE1  0580               	andwf	0,f
  2896     0EE2                     l279:
  2897     0EE2  0008               	return
  2898     0EE3                     __end_of_LCD_Out:
  2899                           
  2900                           	psect	text8
  2901     09FC                     __ptext8:	
  2902 ;; *************** function _ADC_Init *****************
  2903 ;; Defined at:
  2904 ;;		line 68 in file "main.c"
  2905 ;; Parameters:    Size  Location     Type
  2906 ;;		None
  2907 ;; Auto vars:     Size  Location     Type
  2908 ;;		None
  2909 ;; Return value:  Size  Location     Type
  2910 ;;                  1    wreg      void 
  2911 ;; Registers used:
  2912 ;;		status,2
  2913 ;; Tracked objects:
  2914 ;;		On entry : 0/0
  2915 ;;		On exit  : 0/0
  2916 ;;		Unchanged: 0/0
  2917 ;; Data sizes:     COMMON   BANK0   BANK1   BANK3   BANK2
  2918 ;;      Params:         0       0       0       0       0
  2919 ;;      Locals:         0       0       0       0       0
  2920 ;;      Temps:          0       0       0       0       0
  2921 ;;      Totals:         0       0       0       0       0
  2922 ;;Total ram usage:        0 bytes
  2923 ;; Hardware stack levels used: 1
  2924 ;; Hardware stack levels required when called: 3
  2925 ;; This function calls:
  2926 ;;		Nothing
  2927 ;; This function is called by:
  2928 ;;		_main
  2929 ;; This function uses a non-reentrant model
  2930 ;;
  2931                           
  2932     09FC                     _ADC_Init:	
  2933                           ;psect for function _ADC_Init
  2934                           
  2935     09FC                     l1873:	
  2936                           ;incstack = 0
  2937                           ; Regs used in _ADC_Init: [status,2]
  2938                           
  2939                           
  2940                           ;main.c: 70:     ADRESL = 0x00;
  2941     09FC  1683               	bsf	3,5	;RP0=1, select bank1
  2942     09FD  1303               	bcf	3,6	;RP1=0, select bank1
  2943     09FE  019E               	clrf	30	;volatile
  2944                           
  2945                           ;main.c: 71:     ADRESH = 0x00;
  2946     09FF  1283               	bcf	3,5	;RP0=0, select bank0
  2947     0A00  1303               	bcf	3,6	;RP1=0, select bank0
  2948     0A01  019E               	clrf	30	;volatile
  2949     0A02                     l1875:
  2950                           
  2951                           ;main.c: 73:     ADCON0bits.ADCS1 = 1;
  2952     0A02  179F               	bsf	31,7	;volatile
  2953     0A03                     l1877:
  2954                           
  2955                           ;main.c: 74:     ADCON0bits.ADCS0 = 1;
  2956     0A03  171F               	bsf	31,6	;volatile
  2957     0A04                     l1879:
  2958                           
  2959                           ;main.c: 75:     ADCON0bits.CHS2 = 0;
  2960     0A04  129F               	bcf	31,5	;volatile
  2961     0A05                     l1881:
  2962                           
  2963                           ;main.c: 76:     ADCON0bits.CHS1 = 0;
  2964     0A05  121F               	bcf	31,4	;volatile
  2965     0A06                     l1883:
  2966                           
  2967                           ;main.c: 77:     ADCON0bits.CHS0 = 0;
  2968     0A06  119F               	bcf	31,3	;volatile
  2969     0A07                     l1885:
  2970                           
  2971                           ;main.c: 78:     ADCON0bits.GO_nDONE = 0;
  2972     0A07  111F               	bcf	31,2	;volatile
  2973     0A08                     l1887:
  2974                           
  2975                           ;main.c: 79:     ADCON0bits.ADON = 1;
  2976     0A08  141F               	bsf	31,0	;volatile
  2977     0A09                     l1889:
  2978                           
  2979                           ;main.c: 81:     ADCON1bits.ADFM = 1;
  2980     0A09  1683               	bsf	3,5	;RP0=1, select bank1
  2981     0A0A  1303               	bcf	3,6	;RP1=0, select bank1
  2982     0A0B  179F               	bsf	31,7	;volatile
  2983     0A0C                     l1891:
  2984                           
  2985                           ;main.c: 82:     ADCON1bits.ADCS2 = 0;
  2986     0A0C  131F               	bcf	31,6	;volatile
  2987     0A0D                     l1893:
  2988                           
  2989                           ;main.c: 83:     ADCON1bits.PCFG3 = 0;
  2990     0A0D  119F               	bcf	31,3	;volatile
  2991     0A0E                     l1895:
  2992                           
  2993                           ;main.c: 84:     ADCON1bits.PCFG2 = 0;
  2994     0A0E  111F               	bcf	31,2	;volatile
  2995     0A0F                     l1897:
  2996                           
  2997                           ;main.c: 85:     ADCON1bits.PCFG1 = 0;
  2998     0A0F  109F               	bcf	31,1	;volatile
  2999     0A10                     l1899:
  3000                           
  3001                           ;main.c: 86:     ADCON1bits.PCFG0 = 0;
  3002     0A10  101F               	bcf	31,0	;volatile
  3003     0A11                     l73:
  3004     0A11  0008               	return
  3005     0A12                     __end_of_ADC_Init:
  3006                           
  3007                           	psect	text9
  3008     0EE3                     __ptext9:	
  3009 ;; *************** function _InterrupT *****************
  3010 ;; Defined at:
  3011 ;;		line 90 in file "main.c"
  3012 ;; Parameters:    Size  Location     Type
  3013 ;;		None
  3014 ;; Auto vars:     Size  Location     Type
  3015 ;;		None
  3016 ;; Return value:  Size  Location     Type
  3017 ;;                  1    wreg      void 
  3018 ;; Registers used:
  3019 ;;		wreg, status,2, status,0, btemp+1, pclath, cstack
  3020 ;; Tracked objects:
  3021 ;;		On entry : 0/0
  3022 ;;		On exit  : 0/0
  3023 ;;		Unchanged: 0/0
  3024 ;; Data sizes:     COMMON   BANK0   BANK1   BANK3   BANK2
  3025 ;;      Params:         0       0       0       0       0
  3026 ;;      Locals:         0       0       0       0       0
  3027 ;;      Temps:          0       4       0       0       0
  3028 ;;      Totals:         0       4       0       0       0
  3029 ;;Total ram usage:        4 bytes
  3030 ;; Hardware stack levels used: 1
  3031 ;; Hardware stack levels required when called: 2
  3032 ;; This function calls:
  3033 ;;		_ADC_Read
  3034 ;;		___fldiv
  3035 ;;		___flmul
  3036 ;;		___fltol
  3037 ;;		___xxtofl
  3038 ;; This function is called by:
  3039 ;;		Interrupt level 1
  3040 ;; This function uses a non-reentrant model
  3041 ;;
  3042                           
  3043     0EE3                     _InterrupT:	
  3044                           ;psect for function _InterrupT
  3045                           
  3046     0EE3                     i1l2419:
  3047                           
  3048                           ;main.c: 92:     if(INTCONbits.RBIF ==1)
  3049     0EE3  1C0B               	btfss	11,0	;volatile
  3050     0EE4  2EE6               	goto	u304_21
  3051     0EE5  2EE7               	goto	u304_20
  3052     0EE6                     u304_21:
  3053     0EE6  2F47               	goto	i1l2453
  3054     0EE7                     u304_20:
  3055     0EE7                     i1l2421:
  3056                           
  3057                           ;main.c: 93:     {;main.c: 94:         turnON=1;
  3058     0EE7  3001               	movlw	1
  3059     0EE8  1683               	bsf	3,5	;RP0=1, select bank1
  3060     0EE9  1303               	bcf	3,6	;RP1=0, select bank1
  3061     0EEA  00B8               	movwf	_turnON^(0+128)
  3062     0EEB  3000               	movlw	0
  3063     0EEC  00B9               	movwf	(_turnON^(0+128)+1)
  3064     0EED                     i1l2423:
  3065                           
  3066                           ;main.c: 95:         if(PORTBbits.RB7==1)
  3067     0EED  1283               	bcf	3,5	;RP0=0, select bank0
  3068     0EEE  1303               	bcf	3,6	;RP1=0, select bank0
  3069     0EEF  1F86               	btfss	6,7	;volatile
  3070     0EF0  2EF2               	goto	u305_21
  3071     0EF1  2EF3               	goto	u305_20
  3072     0EF2                     u305_21:
  3073     0EF2  2F04               	goto	i1l2431
  3074     0EF3                     u305_20:
  3075     0EF3                     i1l2425:
  3076                           
  3077                           ;main.c: 96:         {;main.c: 97:             if(SetMoist!=99)
  3078     0EF3  3063               	movlw	99
  3079     0EF4  0668               	xorwf	_SetMoist,w
  3080     0EF5  0469               	iorwf	_SetMoist+1,w
  3081     0EF6  1903               	btfsc	3,2
  3082     0EF7  2EF9               	goto	u306_21
  3083     0EF8  2EFA               	goto	u306_20
  3084     0EF9                     u306_21:
  3085     0EF9  2F04               	goto	i1l2431
  3086     0EFA                     u306_20:
  3087     0EFA                     i1l2427:
  3088                           
  3089                           ;main.c: 98:             {;main.c: 99:                 SetMoist++;
  3090     0EFA  3001               	movlw	1
  3091     0EFB  07E8               	addwf	_SetMoist,f
  3092     0EFC  1803               	skipnc
  3093     0EFD  0AE9               	incf	_SetMoist+1,f
  3094     0EFE  3000               	movlw	0
  3095     0EFF  07E9               	addwf	_SetMoist+1,f
  3096     0F00                     i1l2429:
  3097                           
  3098                           ;main.c: 100:                 cset=0;
  3099     0F00  1683               	bsf	3,5	;RP0=1, select bank1
  3100     0F01  1303               	bcf	3,6	;RP1=0, select bank1
  3101     0F02  01BC               	clrf	_cset^(0+128)
  3102     0F03  01BD               	clrf	(_cset+1)^(0+128)
  3103     0F04                     i1l2431:
  3104                           
  3105                           ;main.c: 103:         if(PORTBbits.RB6==1)
  3106     0F04  1283               	bcf	3,5	;RP0=0, select bank0
  3107     0F05  1F06               	btfss	6,6	;volatile
  3108     0F06  2F08               	goto	u307_21
  3109     0F07  2F09               	goto	u307_20
  3110     0F08                     u307_21:
  3111     0F08  2F22               	goto	i1l2441
  3112     0F09                     u307_20:
  3113     0F09                     i1l2433:
  3114                           
  3115                           ;main.c: 104:         {;main.c: 105:             turnON=1;
  3116     0F09  3001               	movlw	1
  3117     0F0A  1683               	bsf	3,5	;RP0=1, select bank1
  3118     0F0B  1303               	bcf	3,6	;RP1=0, select bank1
  3119     0F0C  00B8               	movwf	_turnON^(0+128)
  3120     0F0D  3000               	movlw	0
  3121     0F0E  00B9               	movwf	(_turnON^(0+128)+1)
  3122     0F0F                     i1l2435:
  3123                           
  3124                           ;main.c: 106:             if(SetMoist!=5)
  3125     0F0F  3005               	movlw	5
  3126     0F10  1283               	bcf	3,5	;RP0=0, select bank0
  3127     0F11  1303               	bcf	3,6	;RP1=0, select bank0
  3128     0F12  0668               	xorwf	_SetMoist,w
  3129     0F13  0469               	iorwf	_SetMoist+1,w
  3130     0F14  1903               	btfsc	3,2
  3131     0F15  2F17               	goto	u308_21
  3132     0F16  2F18               	goto	u308_20
  3133     0F17                     u308_21:
  3134     0F17  2F22               	goto	i1l2441
  3135     0F18                     u308_20:
  3136     0F18                     i1l2437:
  3137                           
  3138                           ;main.c: 107:             {;main.c: 108:                 SetMoist--;
  3139     0F18  30FF               	movlw	255
  3140     0F19  07E8               	addwf	_SetMoist,f
  3141     0F1A  1803               	skipnc
  3142     0F1B  0AE9               	incf	_SetMoist+1,f
  3143     0F1C  30FF               	movlw	255
  3144     0F1D  07E9               	addwf	_SetMoist+1,f
  3145     0F1E                     i1l2439:
  3146                           
  3147                           ;main.c: 109:                 cset=0;
  3148     0F1E  1683               	bsf	3,5	;RP0=1, select bank1
  3149     0F1F  1303               	bcf	3,6	;RP1=0, select bank1
  3150     0F20  01BC               	clrf	_cset^(0+128)
  3151     0F21  01BD               	clrf	(_cset+1)^(0+128)
  3152     0F22                     i1l2441:
  3153                           
  3154                           ;main.c: 112:         if(PORTBbits.RB5==1)
  3155     0F22  1283               	bcf	3,5	;RP0=0, select bank0
  3156     0F23  1E86               	btfss	6,5	;volatile
  3157     0F24  2F26               	goto	u309_21
  3158     0F25  2F27               	goto	u309_20
  3159     0F26                     u309_21:
  3160     0F26  2F3C               	goto	i1l2447
  3161     0F27                     u309_20:
  3162     0F27                     i1l2443:
  3163                           
  3164                           ;main.c: 113:         {;main.c: 114:             turnON=1;
  3165     0F27  3001               	movlw	1
  3166     0F28  1683               	bsf	3,5	;RP0=1, select bank1
  3167     0F29  1303               	bcf	3,6	;RP1=0, select bank1
  3168     0F2A  00B8               	movwf	_turnON^(0+128)
  3169     0F2B  3000               	movlw	0
  3170     0F2C  00B9               	movwf	(_turnON^(0+128)+1)
  3171     0F2D                     i1l2445:
  3172                           
  3173                           ;main.c: 115:             PORTCbits.RC0 = ~PORTCbits.RC0;
  3174     0F2D  1003               	clrc
  3175     0F2E  1283               	bcf	3,5	;RP0=0, select bank0
  3176     0F2F  1303               	bcf	3,6	;RP1=0, select bank0
  3177     0F30  1C07               	btfss	7,0	;volatile
  3178     0F31  1403               	setc
  3179     0F32  1803               	btfsc	3,0
  3180     0F33  2F35               	goto	u310_21
  3181     0F34  2F39               	goto	u310_20
  3182     0F35                     u310_21:
  3183     0F35  1283               	bcf	3,5	;RP0=0, select bank0
  3184     0F36  1303               	bcf	3,6	;RP1=0, select bank0
  3185     0F37  1407               	bsf	7,0	;volatile
  3186     0F38  2F3C               	goto	u311_24
  3187     0F39                     u310_20:
  3188     0F39  1283               	bcf	3,5	;RP0=0, select bank0
  3189     0F3A  1303               	bcf	3,6	;RP1=0, select bank0
  3190     0F3B  1007               	bcf	7,0	;volatile
  3191     0F3C                     u311_24:
  3192     0F3C                     i1l2447:
  3193                           
  3194                           ;main.c: 117:         if(PORTBbits.RB4==1)
  3195     0F3C  1E06               	btfss	6,4	;volatile
  3196     0F3D  2F3F               	goto	u312_21
  3197     0F3E  2F40               	goto	u312_20
  3198     0F3F                     u312_21:
  3199     0F3F  2F46               	goto	i1l2451
  3200     0F40                     u312_20:
  3201     0F40                     i1l2449:
  3202                           
  3203                           ;main.c: 118:         {;main.c: 119:             turnON = 1;
  3204     0F40  3001               	movlw	1
  3205     0F41  1683               	bsf	3,5	;RP0=1, select bank1
  3206     0F42  1303               	bcf	3,6	;RP1=0, select bank1
  3207     0F43  00B8               	movwf	_turnON^(0+128)
  3208     0F44  3000               	movlw	0
  3209     0F45  00B9               	movwf	(_turnON^(0+128)+1)
  3210     0F46                     i1l2451:
  3211                           
  3212                           ;main.c: 121:         INTCONbits.RBIF=0;
  3213     0F46  100B               	bcf	11,0	;volatile
  3214     0F47                     i1l2453:
  3215                           
  3216                           ;main.c: 123:     if(INTCONbits.TMR0IF ==1)
  3217     0F47  1D0B               	btfss	11,2	;volatile
  3218     0F48  2F4A               	goto	u313_21
  3219     0F49  2F4B               	goto	u313_20
  3220     0F4A                     u313_21:
  3221     0F4A  2FF6               	goto	i1l91
  3222     0F4B                     u313_20:
  3223     0F4B                     i1l2455:
  3224                           
  3225                           ;main.c: 124:     {;main.c: 125:         sensingCounter++;
  3226     0F4B  3001               	movlw	1
  3227     0F4C  1283               	bcf	3,5	;RP0=0, select bank0
  3228     0F4D  07E6               	addwf	_sensingCounter,f
  3229     0F4E  1803               	skipnc
  3230     0F4F  0AE7               	incf	_sensingCounter+1,f
  3231     0F50  3000               	movlw	0
  3232     0F51  07E7               	addwf	_sensingCounter+1,f
  3233                           
  3234                           ;main.c: 126:         screenCounter++;
  3235     0F52  3001               	movlw	1
  3236     0F53  07E4               	addwf	_screenCounter,f
  3237     0F54  1803               	skipnc
  3238     0F55  0AE5               	incf	_screenCounter+1,f
  3239     0F56  3000               	movlw	0
  3240     0F57  07E5               	addwf	_screenCounter+1,f
  3241     0F58                     i1l2457:
  3242                           
  3243                           ;main.c: 127:         if(sensingCounter==50)
  3244     0F58  3032               	movlw	50
  3245     0F59  0666               	xorwf	_sensingCounter,w
  3246     0F5A  0467               	iorwf	_sensingCounter+1,w
  3247     0F5B  1D03               	btfss	3,2
  3248     0F5C  2F5E               	goto	u314_21
  3249     0F5D  2F5F               	goto	u314_20
  3250     0F5E                     u314_21:
  3251     0F5E  2FE4               	goto	i1l2473
  3252     0F5F                     u314_20:
  3253     0F5F                     i1l2459:
  3254                           
  3255                           ;main.c: 128:         {;main.c: 129:             sensingCounter=0;
  3256     0F5F  01E6               	clrf	_sensingCounter
  3257     0F60  01E7               	clrf	_sensingCounter+1
  3258     0F61                     i1l2461:
  3259                           
  3260                           ;main.c: 130:             getMoist=ADC_Read(0);
  3261     0F61  3000               	movlw	0
  3262     0F62  120A  118A  27C1  120A  158A  	fcall	_ADC_Read
  3263     0F67  0871               	movf	?_ADC_Read+1,w
  3264     0F68  1283               	bcf	3,5	;RP0=0, select bank0
  3265     0F69  1303               	bcf	3,6	;RP1=0, select bank0
  3266     0F6A  00E3               	movwf	_getMoist+1
  3267     0F6B  0870               	movf	?_ADC_Read,w
  3268     0F6C  00E2               	movwf	_getMoist
  3269     0F6D                     i1l2463:
  3270                           
  3271                           ;main.c: 131:             getMoist=(getMoist/1024.0)*100.0;
  3272     0F6D  0862               	movf	_getMoist,w
  3273     0F6E  00F0               	movwf	___xxtofl@val
  3274     0F6F  0863               	movf	_getMoist+1,w
  3275     0F70  00F1               	movwf	___xxtofl@val+1
  3276     0F71  3000               	movlw	0
  3277     0F72  1BF1               	btfsc	___xxtofl@val+1,7
  3278     0F73  30FF               	movlw	255
  3279     0F74  00F2               	movwf	___xxtofl@val+2
  3280     0F75  00F3               	movwf	___xxtofl@val+3
  3281     0F76  3001               	movlw	1
  3282     0F77  120A  158A  249D  120A  158A  	fcall	___xxtofl
  3283     0F7C  0873               	movf	?___xxtofl+3,w
  3284     0F7D  1283               	bcf	3,5	;RP0=0, select bank0
  3285     0F7E  1303               	bcf	3,6	;RP1=0, select bank0
  3286     0F7F  00A7               	movwf	___fldiv@b+3
  3287     0F80  0872               	movf	?___xxtofl+2,w
  3288     0F81  00A6               	movwf	___fldiv@b+2
  3289     0F82  0871               	movf	?___xxtofl+1,w
  3290     0F83  00A5               	movwf	___fldiv@b+1
  3291     0F84  0870               	movf	?___xxtofl,w
  3292     0F85  00A4               	movwf	___fldiv@b
  3293     0F86  3044               	movlw	68
  3294     0F87  00A3               	movwf	___fldiv@a+3
  3295     0F88  3080               	movlw	128
  3296     0F89  00A2               	movwf	___fldiv@a+2
  3297     0F8A  3000               	movlw	0
  3298     0F8B  00A1               	movwf	___fldiv@a+1
  3299     0F8C  3000               	movlw	0
  3300     0F8D  00A0               	movwf	___fldiv@a
  3301     0F8E  120A  118A  25F2  120A  158A  	fcall	___fldiv
  3302     0F93  1283               	bcf	3,5	;RP0=0, select bank0
  3303     0F94  1303               	bcf	3,6	;RP1=0, select bank0
  3304     0F95  0823               	movf	?___fldiv+3,w
  3305     0F96  00C1               	movwf	___flmul@a+3
  3306     0F97  0822               	movf	?___fldiv+2,w
  3307     0F98  00C0               	movwf	___flmul@a+2
  3308     0F99  0821               	movf	?___fldiv+1,w
  3309     0F9A  00BF               	movwf	___flmul@a+1
  3310     0F9B  0820               	movf	?___fldiv,w
  3311     0F9C  00BE               	movwf	___flmul@a
  3312     0F9D  3042               	movlw	66
  3313     0F9E  00BD               	movwf	___flmul@b+3
  3314     0F9F  30C8               	movlw	200
  3315     0FA0  00BC               	movwf	___flmul@b+2
  3316     0FA1  3000               	movlw	0
  3317     0FA2  00BB               	movwf	___flmul@b+1
  3318     0FA3  3000               	movlw	0
  3319     0FA4  00BA               	movwf	___flmul@b
  3320     0FA5  120A  118A  2041  120A  158A  	fcall	___flmul
  3321     0FAA  1283               	bcf	3,5	;RP0=0, select bank0
  3322     0FAB  1303               	bcf	3,6	;RP1=0, select bank0
  3323     0FAC  083D               	movf	?___flmul+3,w
  3324     0FAD  00D7               	movwf	___fltol@f1+3
  3325     0FAE  083C               	movf	?___flmul+2,w
  3326     0FAF  00D6               	movwf	___fltol@f1+2
  3327     0FB0  083B               	movf	?___flmul+1,w
  3328     0FB1  00D5               	movwf	___fltol@f1+1
  3329     0FB2  083A               	movf	?___flmul,w
  3330     0FB3  00D4               	movwf	___fltol@f1
  3331     0FB4  120A  158A  2383  120A  158A  	fcall	___fltol
  3332     0FB9  1283               	bcf	3,5	;RP0=0, select bank0
  3333     0FBA  1303               	bcf	3,6	;RP1=0, select bank0
  3334     0FBB  0855               	movf	?___fltol+1,w
  3335     0FBC  00E3               	movwf	_getMoist+1
  3336     0FBD  0854               	movf	?___fltol,w
  3337     0FBE  00E2               	movwf	_getMoist
  3338     0FBF                     i1l2465:
  3339                           
  3340                           ;main.c: 132:             if(getMoist<SetMoist)
  3341     0FBF  0863               	movf	_getMoist+1,w
  3342     0FC0  3A80               	xorlw	128
  3343     0FC1  00DE               	movwf	??_InterrupT
  3344     0FC2  0869               	movf	_SetMoist+1,w
  3345     0FC3  3A80               	xorlw	128
  3346     0FC4  025E               	subwf	??_InterrupT,w
  3347     0FC5  1D03               	skipz
  3348     0FC6  2FC9               	goto	u315_25
  3349     0FC7  0868               	movf	_SetMoist,w
  3350     0FC8  0262               	subwf	_getMoist,w
  3351     0FC9                     u315_25:
  3352     0FC9  1803               	skipnc
  3353     0FCA  2FCC               	goto	u315_21
  3354     0FCB  2FCD               	goto	u315_20
  3355     0FCC                     u315_21:
  3356     0FCC  2FD1               	goto	i1l2469
  3357     0FCD                     u315_20:
  3358     0FCD                     i1l2467:
  3359                           
  3360                           ;main.c: 133:             {;main.c: 134:                 PORTCbits.RC0=1;
  3361     0FCD  1283               	bcf	3,5	;RP0=0, select bank0
  3362     0FCE  1303               	bcf	3,6	;RP1=0, select bank0
  3363     0FCF  1407               	bsf	7,0	;volatile
  3364                           
  3365                           ;main.c: 135:             }
  3366     0FD0  2FE4               	goto	i1l2473
  3367     0FD1                     i1l2469:
  3368     0FD1  1283               	bcf	3,5	;RP0=0, select bank0
  3369     0FD2  1303               	bcf	3,6	;RP1=0, select bank0
  3370     0FD3  0869               	movf	_SetMoist+1,w
  3371     0FD4  3A80               	xorlw	128
  3372     0FD5  00DE               	movwf	??_InterrupT
  3373     0FD6  0863               	movf	_getMoist+1,w
  3374     0FD7  3A80               	xorlw	128
  3375     0FD8  025E               	subwf	??_InterrupT,w
  3376     0FD9  1D03               	skipz
  3377     0FDA  2FDD               	goto	u316_25
  3378     0FDB  0862               	movf	_getMoist,w
  3379     0FDC  0268               	subwf	_SetMoist,w
  3380     0FDD                     u316_25:
  3381     0FDD  1803               	skipnc
  3382     0FDE  2FE0               	goto	u316_21
  3383     0FDF  2FE1               	goto	u316_20
  3384     0FE0                     u316_21:
  3385     0FE0  2FE4               	goto	i1l2473
  3386     0FE1                     u316_20:
  3387     0FE1                     i1l2471:
  3388                           
  3389                           ;main.c: 137:             {;main.c: 138:                 PORTCbits.RC0=0;
  3390     0FE1  1283               	bcf	3,5	;RP0=0, select bank0
  3391     0FE2  1303               	bcf	3,6	;RP1=0, select bank0
  3392     0FE3  1007               	bcf	7,0	;volatile
  3393     0FE4                     i1l2473:
  3394                           
  3395                           ;main.c: 141:         if(screenCounter==500)
  3396     0FE4  30F4               	movlw	244
  3397     0FE5  1283               	bcf	3,5	;RP0=0, select bank0
  3398     0FE6  1303               	bcf	3,6	;RP1=0, select bank0
  3399     0FE7  0664               	xorwf	_screenCounter,w
  3400     0FE8  1D03               	skipz
  3401     0FE9  2FEE               	goto	u317_21
  3402     0FEA  0365               	decf	_screenCounter+1,w
  3403     0FEB  1D03               	btfss	3,2
  3404     0FEC  2FEE               	goto	u317_21
  3405     0FED  2FEF               	goto	u317_20
  3406     0FEE                     u317_21:
  3407     0FEE  2FF5               	goto	i1l2477
  3408     0FEF                     u317_20:
  3409     0FEF                     i1l2475:
  3410                           
  3411                           ;main.c: 142:         {;main.c: 143:             screenCounter=0;
  3412     0FEF  01E4               	clrf	_screenCounter
  3413     0FF0  01E5               	clrf	_screenCounter+1
  3414                           
  3415                           ;main.c: 144:             turnON=0;
  3416     0FF1  1683               	bsf	3,5	;RP0=1, select bank1
  3417     0FF2  1303               	bcf	3,6	;RP1=0, select bank1
  3418     0FF3  01B8               	clrf	_turnON^(0+128)
  3419     0FF4  01B9               	clrf	(_turnON+1)^(0+128)
  3420     0FF5                     i1l2477:
  3421                           
  3422                           ;main.c: 146:         INTCONbits.TMR0IF=0;
  3423     0FF5  110B               	bcf	11,2	;volatile
  3424     0FF6                     i1l91:
  3425     0FF6  1283               	bcf	3,5	;RP0=0, select bank0
  3426     0FF7  0861               	movf	??_InterrupT+3,w
  3427     0FF8  00FF               	movwf	btemp+1
  3428     0FF9  0860               	movf	??_InterrupT+2,w
  3429     0FFA  008A               	movwf	10
  3430     0FFB  0E5F               	swapf	??_InterrupT+1,w
  3431     0FFC  0083               	movwf	3
  3432     0FFD  0EFE               	swapf	btemp,f
  3433     0FFE  0E7E               	swapf	btemp,w
  3434     0FFF  0009               	retfie
  3435     1000                     __end_of_InterrupT:
  3436                           
  3437                           	psect	intentry
  3438     0004                     __pintentry:	
  3439                           ;incstack = 0
  3440                           ; Regs used in _InterrupT: [wreg+status,2+status,0+btemp+1+pclath+cstack]
  3441                           
  3442     0004                     interrupt_function:
  3443     007E                     saved_w	set	btemp
  3444     0004  00FE               	movwf	btemp
  3445     0005  0E03               	swapf	3,w
  3446     0006  1283               	bcf	3,5	;RP0=0, select bank0
  3447     0007  1303               	bcf	3,6	;RP1=0, select bank0
  3448     0008  00DF               	movwf	??_InterrupT+1
  3449     0009  080A               	movf	10,w
  3450     000A  00E0               	movwf	??_InterrupT+2
  3451     000B  087F               	movf	btemp+1,w
  3452     000C  00E1               	movwf	??_InterrupT+3
  3453     000D  120A  158A  2EE3   	ljmp	_InterrupT
  3454                           
  3455                           	psect	text10
  3456     0C9D                     __ptext10:	
  3457 ;; *************** function ___xxtofl *****************
  3458 ;; Defined at:
  3459 ;;		line 10 in file "C:\Program Files\Microchip\xc8\v2.45\pic\sources\c99\common\xxtofl.c"
  3460 ;; Parameters:    Size  Location     Type
  3461 ;;  sign            1    wreg     unsigned char 
  3462 ;;  val             4    0[COMMON] long 
  3463 ;; Auto vars:     Size  Location     Type
  3464 ;;  sign            1    8[COMMON] unsigned char 
  3465 ;;  arg             4   10[COMMON] unsigned long 
  3466 ;;  exp             1    9[COMMON] unsigned char 
  3467 ;; Return value:  Size  Location     Type
  3468 ;;                  4    0[COMMON] unsigned char 
  3469 ;; Registers used:
  3470 ;;		wreg, status,2, status,0, btemp+1
  3471 ;; Tracked objects:
  3472 ;;		On entry : 0/0
  3473 ;;		On exit  : 0/0
  3474 ;;		Unchanged: 0/0
  3475 ;; Data sizes:     COMMON   BANK0   BANK1   BANK3   BANK2
  3476 ;;      Params:         4       0       0       0       0
  3477 ;;      Locals:         6       0       0       0       0
  3478 ;;      Temps:          4       0       0       0       0
  3479 ;;      Totals:        14       0       0       0       0
  3480 ;;Total ram usage:       14 bytes
  3481 ;; Hardware stack levels used: 1
  3482 ;; This function calls:
  3483 ;;		Nothing
  3484 ;; This function is called by:
  3485 ;;		_InterrupT
  3486 ;; This function uses a non-reentrant model
  3487 ;;
  3488                           
  3489     0C9D                     ___xxtofl:	
  3490                           ;psect for function ___xxtofl
  3491                           
  3492                           
  3493                           ;incstack = 0
  3494                           ; Regs used in ___xxtofl: [wreg+status,2+status,0+btemp+1]
  3495                           ;___xxtofl@sign stored from wreg
  3496     0C9D  00F8               	movwf	___xxtofl@sign
  3497     0C9E                     i1l2371:
  3498     0C9E  0878               	movf	___xxtofl@sign,w
  3499     0C9F  1903               	btfsc	3,2
  3500     0CA0  2CA2               	goto	u290_21
  3501     0CA1  2CA3               	goto	u290_20
  3502     0CA2                     u290_21:
  3503     0CA2  2CB7               	goto	i1l2377
  3504     0CA3                     u290_20:
  3505     0CA3                     i1l2373:
  3506     0CA3  1FF3               	btfss	___xxtofl@val+3,7
  3507     0CA4  2CA6               	goto	u291_21
  3508     0CA5  2CA7               	goto	u291_20
  3509     0CA6                     u291_21:
  3510     0CA6  2CB7               	goto	i1l2377
  3511     0CA7                     u291_20:
  3512     0CA7                     i1l2375:
  3513     0CA7  0970               	comf	___xxtofl@val,w
  3514     0CA8  00FA               	movwf	___xxtofl@arg
  3515     0CA9  0971               	comf	___xxtofl@val+1,w
  3516     0CAA  00FB               	movwf	___xxtofl@arg+1
  3517     0CAB  0972               	comf	___xxtofl@val+2,w
  3518     0CAC  00FC               	movwf	___xxtofl@arg+2
  3519     0CAD  0973               	comf	___xxtofl@val+3,w
  3520     0CAE  00FD               	movwf	___xxtofl@arg+3
  3521     0CAF  0AFA               	incf	___xxtofl@arg,f
  3522     0CB0  1903               	skipnz
  3523     0CB1  0AFB               	incf	___xxtofl@arg+1,f
  3524     0CB2  1903               	skipnz
  3525     0CB3  0AFC               	incf	___xxtofl@arg+2,f
  3526     0CB4  1903               	skipnz
  3527     0CB5  0AFD               	incf	___xxtofl@arg+3,f
  3528     0CB6  2CBF               	goto	i1l850
  3529     0CB7                     i1l2377:
  3530     0CB7  0873               	movf	___xxtofl@val+3,w
  3531     0CB8  00FD               	movwf	___xxtofl@arg+3
  3532     0CB9  0872               	movf	___xxtofl@val+2,w
  3533     0CBA  00FC               	movwf	___xxtofl@arg+2
  3534     0CBB  0871               	movf	___xxtofl@val+1,w
  3535     0CBC  00FB               	movwf	___xxtofl@arg+1
  3536     0CBD  0870               	movf	___xxtofl@val,w
  3537     0CBE  00FA               	movwf	___xxtofl@arg
  3538     0CBF                     i1l850:
  3539     0CBF  0873               	movf	___xxtofl@val+3,w
  3540     0CC0  0472               	iorwf	___xxtofl@val+2,w
  3541     0CC1  0471               	iorwf	___xxtofl@val+1,w
  3542     0CC2  0470               	iorwf	___xxtofl@val,w
  3543     0CC3  1D03               	skipz
  3544     0CC4  2CC6               	goto	u292_21
  3545     0CC5  2CC7               	goto	u292_20
  3546     0CC6                     u292_21:
  3547     0CC6  2CD0               	goto	i1l2383
  3548     0CC7                     u292_20:
  3549     0CC7                     i1l2379:
  3550     0CC7  3000               	movlw	0
  3551     0CC8  00F3               	movwf	?___xxtofl+3
  3552     0CC9  3000               	movlw	0
  3553     0CCA  00F2               	movwf	?___xxtofl+2
  3554     0CCB  3000               	movlw	0
  3555     0CCC  00F1               	movwf	?___xxtofl+1
  3556     0CCD  3000               	movlw	0
  3557     0CCE  00F0               	movwf	?___xxtofl
  3558     0CCF  2D54               	goto	i1l852
  3559     0CD0                     i1l2383:
  3560     0CD0  3096               	movlw	150
  3561     0CD1  00F9               	movwf	___xxtofl@exp
  3562     0CD2  2CE0               	goto	i1l2389
  3563     0CD3                     i1l2385:
  3564     0CD3  3001               	movlw	1
  3565     0CD4  00FF               	movwf	btemp+1
  3566     0CD5  087F               	movf	btemp+1,w
  3567     0CD6  07F9               	addwf	___xxtofl@exp,f
  3568     0CD7                     i1l2387:
  3569     0CD7  3001               	movlw	1
  3570     0CD8                     u293_25:
  3571     0CD8  1003               	clrc
  3572     0CD9  0CFD               	rrf	___xxtofl@arg+3,f
  3573     0CDA  0CFC               	rrf	___xxtofl@arg+2,f
  3574     0CDB  0CFB               	rrf	___xxtofl@arg+1,f
  3575     0CDC  0CFA               	rrf	___xxtofl@arg,f
  3576     0CDD  3EFF               	addlw	-1
  3577     0CDE  1D03               	skipz
  3578     0CDF  2CD8               	goto	u293_25
  3579     0CE0                     i1l2389:
  3580     0CE0  30FE               	movlw	254
  3581     0CE1  057D               	andwf	___xxtofl@arg+3,w
  3582     0CE2  1D03               	btfss	3,2
  3583     0CE3  2CE5               	goto	u294_21
  3584     0CE4  2CE6               	goto	u294_20
  3585     0CE5                     u294_21:
  3586     0CE5  2CD3               	goto	i1l2385
  3587     0CE6                     u294_20:
  3588     0CE6  2D02               	goto	i1l2397
  3589     0CE7                     i1l2391:
  3590     0CE7  3001               	movlw	1
  3591     0CE8  00FF               	movwf	btemp+1
  3592     0CE9  087F               	movf	btemp+1,w
  3593     0CEA  07F9               	addwf	___xxtofl@exp,f
  3594     0CEB                     i1l2393:
  3595     0CEB  3001               	movlw	1
  3596     0CEC  07FA               	addwf	___xxtofl@arg,f
  3597     0CED  3000               	movlw	0
  3598     0CEE  1803               	skipnc
  3599     0CEF  3001               	movlw	1
  3600     0CF0  07FB               	addwf	___xxtofl@arg+1,f
  3601     0CF1  3000               	movlw	0
  3602     0CF2  1803               	skipnc
  3603     0CF3  3001               	movlw	1
  3604     0CF4  07FC               	addwf	___xxtofl@arg+2,f
  3605     0CF5  3000               	movlw	0
  3606     0CF6  1803               	skipnc
  3607     0CF7  3001               	movlw	1
  3608     0CF8  07FD               	addwf	___xxtofl@arg+3,f
  3609     0CF9                     i1l2395:
  3610     0CF9  3001               	movlw	1
  3611     0CFA                     u295_25:
  3612     0CFA  1003               	clrc
  3613     0CFB  0CFD               	rrf	___xxtofl@arg+3,f
  3614     0CFC  0CFC               	rrf	___xxtofl@arg+2,f
  3615     0CFD  0CFB               	rrf	___xxtofl@arg+1,f
  3616     0CFE  0CFA               	rrf	___xxtofl@arg,f
  3617     0CFF  3EFF               	addlw	-1
  3618     0D00  1D03               	skipz
  3619     0D01  2CFA               	goto	u295_25
  3620     0D02                     i1l2397:
  3621     0D02  30FF               	movlw	255
  3622     0D03  057D               	andwf	___xxtofl@arg+3,w
  3623     0D04  1D03               	btfss	3,2
  3624     0D05  2D07               	goto	u296_21
  3625     0D06  2D08               	goto	u296_20
  3626     0D07                     u296_21:
  3627     0D07  2CE7               	goto	i1l2391
  3628     0D08                     u296_20:
  3629     0D08  2D14               	goto	i1l2401
  3630     0D09                     i1l2399:
  3631     0D09  3001               	movlw	1
  3632     0D0A  02F9               	subwf	___xxtofl@exp,f
  3633     0D0B  3001               	movlw	1
  3634     0D0C  00F4               	movwf	??___xxtofl
  3635     0D0D                     u297_25:
  3636     0D0D  1003               	clrc
  3637     0D0E  0DFA               	rlf	___xxtofl@arg,f
  3638     0D0F  0DFB               	rlf	___xxtofl@arg+1,f
  3639     0D10  0DFC               	rlf	___xxtofl@arg+2,f
  3640     0D11  0DFD               	rlf	___xxtofl@arg+3,f
  3641     0D12  0BF4               	decfsz	??___xxtofl,f
  3642     0D13  2D0D               	goto	u297_25
  3643     0D14                     i1l2401:
  3644     0D14  1BFC               	btfsc	___xxtofl@arg+2,7
  3645     0D15  2D17               	goto	u298_21
  3646     0D16  2D18               	goto	u298_20
  3647     0D17                     u298_21:
  3648     0D17  2D1E               	goto	i1l863
  3649     0D18                     u298_20:
  3650     0D18                     i1l2403:
  3651     0D18  3002               	movlw	2
  3652     0D19  0279               	subwf	___xxtofl@exp,w
  3653     0D1A  1803               	skipnc
  3654     0D1B  2D1D               	goto	u299_21
  3655     0D1C  2D1E               	goto	u299_20
  3656     0D1D                     u299_21:
  3657     0D1D  2D09               	goto	i1l2399
  3658     0D1E                     u299_20:
  3659     0D1E                     i1l863:
  3660     0D1E  1879               	btfsc	___xxtofl@exp,0
  3661     0D1F  2D21               	goto	u300_21
  3662     0D20  2D22               	goto	u300_20
  3663     0D21                     u300_21:
  3664     0D21  2D2A               	goto	i1l864
  3665     0D22                     u300_20:
  3666     0D22                     i1l2405:
  3667     0D22  30FF               	movlw	255
  3668     0D23  05FA               	andwf	___xxtofl@arg,f
  3669     0D24  30FF               	movlw	255
  3670     0D25  05FB               	andwf	___xxtofl@arg+1,f
  3671     0D26  307F               	movlw	127
  3672     0D27  05FC               	andwf	___xxtofl@arg+2,f
  3673     0D28  30FF               	movlw	255
  3674     0D29  05FD               	andwf	___xxtofl@arg+3,f
  3675     0D2A                     i1l864:
  3676     0D2A  1003               	clrc
  3677     0D2B  0CF9               	rrf	___xxtofl@exp,f
  3678     0D2C                     i1l2407:
  3679     0D2C  0879               	movf	___xxtofl@exp,w
  3680     0D2D  00F4               	movwf	??___xxtofl
  3681     0D2E  01F5               	clrf	??___xxtofl+1
  3682     0D2F  01F6               	clrf	??___xxtofl+2
  3683     0D30  01F7               	clrf	??___xxtofl+3
  3684     0D31  3018               	movlw	24
  3685     0D32                     u301_25:
  3686     0D32  1003               	clrc
  3687     0D33  0DF4               	rlf	??___xxtofl,f
  3688     0D34  0DF5               	rlf	??___xxtofl+1,f
  3689     0D35  0DF6               	rlf	??___xxtofl+2,f
  3690     0D36  0DF7               	rlf	??___xxtofl+3,f
  3691     0D37                     u301_20:
  3692     0D37  3EFF               	addlw	-1
  3693     0D38  1D03               	skipz
  3694     0D39  2D32               	goto	u301_25
  3695     0D3A  0874               	movf	??___xxtofl,w
  3696     0D3B  04FA               	iorwf	___xxtofl@arg,f
  3697     0D3C  0875               	movf	??___xxtofl+1,w
  3698     0D3D  04FB               	iorwf	___xxtofl@arg+1,f
  3699     0D3E  0876               	movf	??___xxtofl+2,w
  3700     0D3F  04FC               	iorwf	___xxtofl@arg+2,f
  3701     0D40  0877               	movf	??___xxtofl+3,w
  3702     0D41  04FD               	iorwf	___xxtofl@arg+3,f
  3703     0D42                     i1l2409:
  3704     0D42  0878               	movf	___xxtofl@sign,w
  3705     0D43  1903               	btfsc	3,2
  3706     0D44  2D46               	goto	u302_21
  3707     0D45  2D47               	goto	u302_20
  3708     0D46                     u302_21:
  3709     0D46  2D4C               	goto	i1l2415
  3710     0D47                     u302_20:
  3711     0D47                     i1l2411:
  3712     0D47  1FF3               	btfss	___xxtofl@val+3,7
  3713     0D48  2D4A               	goto	u303_21
  3714     0D49  2D4B               	goto	u303_20
  3715     0D4A                     u303_21:
  3716     0D4A  2D4C               	goto	i1l2415
  3717     0D4B                     u303_20:
  3718     0D4B                     i1l2413:
  3719     0D4B  17FD               	bsf	___xxtofl@arg+3,7
  3720     0D4C                     i1l2415:
  3721     0D4C  087D               	movf	___xxtofl@arg+3,w
  3722     0D4D  00F3               	movwf	?___xxtofl+3
  3723     0D4E  087C               	movf	___xxtofl@arg+2,w
  3724     0D4F  00F2               	movwf	?___xxtofl+2
  3725     0D50  087B               	movf	___xxtofl@arg+1,w
  3726     0D51  00F1               	movwf	?___xxtofl+1
  3727     0D52  087A               	movf	___xxtofl@arg,w
  3728     0D53  00F0               	movwf	?___xxtofl
  3729     0D54                     i1l852:
  3730     0D54  0008               	return
  3731     0D55                     __end_of___xxtofl:
  3732                           
  3733                           	psect	text11
  3734     0B83                     __ptext11:	
  3735 ;; *************** function ___fltol *****************
  3736 ;; Defined at:
  3737 ;;		line 43 in file "C:\Program Files\Microchip\xc8\v2.45\pic\sources\c99\common\fltol.c"
  3738 ;; Parameters:    Size  Location     Type
  3739 ;;  f1              4   52[BANK0 ] unsigned char 
  3740 ;; Auto vars:     Size  Location     Type
  3741 ;;  exp1            1   61[BANK0 ] unsigned char 
  3742 ;;  sign1           1   60[BANK0 ] unsigned char 
  3743 ;; Return value:  Size  Location     Type
  3744 ;;                  4   52[BANK0 ] long 
  3745 ;; Registers used:
  3746 ;;		wreg, status,2, status,0, btemp+1
  3747 ;; Tracked objects:
  3748 ;;		On entry : 0/0
  3749 ;;		On exit  : 0/0
  3750 ;;		Unchanged: 0/0
  3751 ;; Data sizes:     COMMON   BANK0   BANK1   BANK3   BANK2
  3752 ;;      Params:         0       4       0       0       0
  3753 ;;      Locals:         0       2       0       0       0
  3754 ;;      Temps:          0       4       0       0       0
  3755 ;;      Totals:         0      10       0       0       0
  3756 ;;Total ram usage:       10 bytes
  3757 ;; Hardware stack levels used: 1
  3758 ;; This function calls:
  3759 ;;		Nothing
  3760 ;; This function is called by:
  3761 ;;		_InterrupT
  3762 ;; This function uses a non-reentrant model
  3763 ;;
  3764                           
  3765     0B83                     ___fltol:	
  3766                           ;psect for function ___fltol
  3767                           
  3768     0B83                     i1l2045:	
  3769                           ;incstack = 0
  3770                           ; Regs used in ___fltol: [wreg+status,2+status,0+btemp+1]
  3771                           
  3772     0B83  1003               	clrc
  3773     0B84  1283               	bcf	3,5	;RP0=0, select bank0
  3774     0B85  1303               	bcf	3,6	;RP1=0, select bank0
  3775     0B86  0D56               	rlf	___fltol@f1+2,w
  3776     0B87  0D57               	rlf	___fltol@f1+3,w
  3777     0B88  00DD               	movwf	___fltol@exp1
  3778     0B89  085D               	movf	___fltol@exp1,w
  3779     0B8A  1D03               	btfss	3,2
  3780     0B8B  2B8D               	goto	u214_21
  3781     0B8C  2B8E               	goto	u214_20
  3782     0B8D                     u214_21:
  3783     0B8D  2B97               	goto	i1l2051
  3784     0B8E                     u214_20:
  3785     0B8E                     i1l2047:
  3786     0B8E  3000               	movlw	0
  3787     0B8F  00D7               	movwf	?___fltol+3
  3788     0B90  3000               	movlw	0
  3789     0B91  00D6               	movwf	?___fltol+2
  3790     0B92  3000               	movlw	0
  3791     0B93  00D5               	movwf	?___fltol+1
  3792     0B94  3000               	movlw	0
  3793     0B95  00D4               	movwf	?___fltol
  3794     0B96  2BFA               	goto	i1l603
  3795     0B97                     i1l2051:
  3796     0B97  0854               	movf	___fltol@f1,w
  3797     0B98  00D8               	movwf	??___fltol
  3798     0B99  0855               	movf	___fltol@f1+1,w
  3799     0B9A  00D9               	movwf	??___fltol+1
  3800     0B9B  0856               	movf	___fltol@f1+2,w
  3801     0B9C  00DA               	movwf	??___fltol+2
  3802     0B9D  0857               	movf	___fltol@f1+3,w
  3803     0B9E  00DB               	movwf	??___fltol+3
  3804     0B9F  301F               	movlw	31
  3805     0BA0                     u215_25:
  3806     0BA0  1003               	clrc
  3807     0BA1  0CDB               	rrf	??___fltol+3,f
  3808     0BA2  0CDA               	rrf	??___fltol+2,f
  3809     0BA3  0CD9               	rrf	??___fltol+1,f
  3810     0BA4  0CD8               	rrf	??___fltol,f
  3811     0BA5                     u215_20:
  3812     0BA5  3EFF               	addlw	-1
  3813     0BA6  1D03               	skipz
  3814     0BA7  2BA0               	goto	u215_25
  3815     0BA8  0858               	movf	??___fltol,w
  3816     0BA9  00DC               	movwf	___fltol@sign1
  3817     0BAA                     i1l2053:
  3818     0BAA  17D6               	bsf	___fltol@f1+2,7
  3819     0BAB                     i1l2055:
  3820     0BAB  30FF               	movlw	255
  3821     0BAC  05D4               	andwf	___fltol@f1,f
  3822     0BAD  30FF               	movlw	255
  3823     0BAE  05D5               	andwf	___fltol@f1+1,f
  3824     0BAF  30FF               	movlw	255
  3825     0BB0  05D6               	andwf	___fltol@f1+2,f
  3826     0BB1  3000               	movlw	0
  3827     0BB2  05D7               	andwf	___fltol@f1+3,f
  3828     0BB3                     i1l2057:
  3829     0BB3  3096               	movlw	150
  3830     0BB4  02DD               	subwf	___fltol@exp1,f
  3831     0BB5                     i1l2059:
  3832     0BB5  1FDD               	btfss	___fltol@exp1,7
  3833     0BB6  2BB8               	goto	u216_21
  3834     0BB7  2BB9               	goto	u216_20
  3835     0BB8                     u216_21:
  3836     0BB8  2BD3               	goto	i1l2071
  3837     0BB9                     u216_20:
  3838     0BB9                     i1l2061:
  3839     0BB9  085D               	movf	___fltol@exp1,w
  3840     0BBA  3A80               	xorlw	128
  3841     0BBB  3E97               	addlw	151
  3842     0BBC  1803               	skipnc
  3843     0BBD  2BBF               	goto	u217_21
  3844     0BBE  2BC0               	goto	u217_20
  3845     0BBF                     u217_21:
  3846     0BBF  2BC1               	goto	i1l2067
  3847     0BC0                     u217_20:
  3848     0BC0  2B8E               	goto	i1l2047
  3849     0BC1                     i1l2067:
  3850     0BC1  3001               	movlw	1
  3851     0BC2                     u218_25:
  3852     0BC2  1003               	clrc
  3853     0BC3  0CD7               	rrf	___fltol@f1+3,f
  3854     0BC4  0CD6               	rrf	___fltol@f1+2,f
  3855     0BC5  0CD5               	rrf	___fltol@f1+1,f
  3856     0BC6  0CD4               	rrf	___fltol@f1,f
  3857     0BC7  3EFF               	addlw	-1
  3858     0BC8  1D03               	skipz
  3859     0BC9  2BC2               	goto	u218_25
  3860     0BCA                     i1l2069:
  3861     0BCA  3001               	movlw	1
  3862     0BCB  00FF               	movwf	btemp+1
  3863     0BCC  087F               	movf	btemp+1,w
  3864     0BCD  07DD               	addwf	___fltol@exp1,f
  3865     0BCE  1D03               	btfss	3,2
  3866     0BCF  2BD1               	goto	u219_21
  3867     0BD0  2BD2               	goto	u219_20
  3868     0BD1                     u219_21:
  3869     0BD1  2BC1               	goto	i1l2067
  3870     0BD2                     u219_20:
  3871     0BD2  2BEA               	goto	i1l2079
  3872     0BD3                     i1l2071:
  3873     0BD3  3020               	movlw	32
  3874     0BD4  025D               	subwf	___fltol@exp1,w
  3875     0BD5  1C03               	skipc
  3876     0BD6  2BD8               	goto	u220_21
  3877     0BD7  2BD9               	goto	u220_20
  3878     0BD8                     u220_21:
  3879     0BD8  2BE5               	goto	i1l610
  3880     0BD9                     u220_20:
  3881     0BD9  2B8E               	goto	i1l2047
  3882     0BDA                     i1l2077:
  3883     0BDA  3001               	movlw	1
  3884     0BDB  00D8               	movwf	??___fltol
  3885     0BDC                     u221_25:
  3886     0BDC  1003               	clrc
  3887     0BDD  0DD4               	rlf	___fltol@f1,f
  3888     0BDE  0DD5               	rlf	___fltol@f1+1,f
  3889     0BDF  0DD6               	rlf	___fltol@f1+2,f
  3890     0BE0  0DD7               	rlf	___fltol@f1+3,f
  3891     0BE1  0BD8               	decfsz	??___fltol,f
  3892     0BE2  2BDC               	goto	u221_25
  3893     0BE3  3001               	movlw	1
  3894     0BE4  02DD               	subwf	___fltol@exp1,f
  3895     0BE5                     i1l610:
  3896     0BE5  085D               	movf	___fltol@exp1,w
  3897     0BE6  1D03               	btfss	3,2
  3898     0BE7  2BE9               	goto	u222_21
  3899     0BE8  2BEA               	goto	u222_20
  3900     0BE9                     u222_21:
  3901     0BE9  2BDA               	goto	i1l2077
  3902     0BEA                     u222_20:
  3903     0BEA                     i1l2079:
  3904     0BEA  085C               	movf	___fltol@sign1,w
  3905     0BEB  1903               	btfsc	3,2
  3906     0BEC  2BEE               	goto	u223_21
  3907     0BED  2BEF               	goto	u223_20
  3908     0BEE                     u223_21:
  3909     0BEE  2BFA               	goto	i1l613
  3910     0BEF                     u223_20:
  3911     0BEF                     i1l2081:
  3912     0BEF  09D4               	comf	___fltol@f1,f
  3913     0BF0  09D5               	comf	___fltol@f1+1,f
  3914     0BF1  09D6               	comf	___fltol@f1+2,f
  3915     0BF2  09D7               	comf	___fltol@f1+3,f
  3916     0BF3  0AD4               	incf	___fltol@f1,f
  3917     0BF4  1903               	skipnz
  3918     0BF5  0AD5               	incf	___fltol@f1+1,f
  3919     0BF6  1903               	skipnz
  3920     0BF7  0AD6               	incf	___fltol@f1+2,f
  3921     0BF8  1903               	skipnz
  3922     0BF9  0AD7               	incf	___fltol@f1+3,f
  3923     0BFA                     i1l613:
  3924     0BFA                     i1l603:
  3925     0BFA  0008               	return
  3926     0BFB                     __end_of___fltol:
  3927                           
  3928                           	psect	text12
  3929     0041                     __ptext12:	
  3930 ;; *************** function ___flmul *****************
  3931 ;; Defined at:
  3932 ;;		line 8 in file "C:\Program Files\Microchip\xc8\v2.45\pic\sources\c99\common\sprcmul.c"
  3933 ;; Parameters:    Size  Location     Type
  3934 ;;  b               4   26[BANK0 ] long 
  3935 ;;  a               4   30[BANK0 ] long 
  3936 ;; Auto vars:     Size  Location     Type
  3937 ;;  prod            4   46[BANK0 ] struct .
  3938 ;;  grs             4   40[BANK0 ] unsigned long 
  3939 ;;  temp            2   50[BANK0 ] struct .
  3940 ;;  bexp            1   45[BANK0 ] unsigned char 
  3941 ;;  aexp            1   44[BANK0 ] unsigned char 
  3942 ;;  sign            1   39[BANK0 ] unsigned char 
  3943 ;; Return value:  Size  Location     Type
  3944 ;;                  4   26[BANK0 ] unsigned char 
  3945 ;; Registers used:
  3946 ;;		wreg, status,2, status,0, btemp+1, pclath, cstack
  3947 ;; Tracked objects:
  3948 ;;		On entry : 0/0
  3949 ;;		On exit  : 0/0
  3950 ;;		Unchanged: 0/0
  3951 ;; Data sizes:     COMMON   BANK0   BANK1   BANK3   BANK2
  3952 ;;      Params:         0       8       0       0       0
  3953 ;;      Locals:         0      13       0       0       0
  3954 ;;      Temps:          0       5       0       0       0
  3955 ;;      Totals:         0      26       0       0       0
  3956 ;;Total ram usage:       26 bytes
  3957 ;; Hardware stack levels used: 1
  3958 ;; Hardware stack levels required when called: 1
  3959 ;; This function calls:
  3960 ;;		__Umul8_16
  3961 ;; This function is called by:
  3962 ;;		_InterrupT
  3963 ;; This function uses a non-reentrant model
  3964 ;;
  3965                           
  3966     0041                     ___flmul:	
  3967                           ;psect for function ___flmul
  3968                           
  3969     0041                     i1l2229:	
  3970                           ;incstack = 0
  3971                           ; Regs used in ___flmul: [wreg+status,2+status,0+btemp+1+pclath+cstack]
  3972                           
  3973     0041  1283               	bcf	3,5	;RP0=0, select bank0
  3974     0042  1303               	bcf	3,6	;RP1=0, select bank0
  3975     0043  083D               	movf	___flmul@b+3,w
  3976     0044  3980               	andlw	128
  3977     0045  00C7               	movwf	___flmul@sign
  3978     0046                     i1l2231:
  3979     0046  083D               	movf	___flmul@b+3,w
  3980     0047  00C2               	movwf	??___flmul
  3981     0048  0742               	addwf	??___flmul,w
  3982     0049  00CD               	movwf	___flmul@bexp
  3983     004A                     i1l2233:
  3984     004A  1FBC               	btfss	___flmul@b+2,7
  3985     004B  284D               	goto	u253_21
  3986     004C  284E               	goto	u253_20
  3987     004D                     u253_21:
  3988     004D  284F               	goto	i1l2237
  3989     004E                     u253_20:
  3990     004E                     i1l2235:
  3991     004E  144D               	bsf	___flmul@bexp,0
  3992     004F                     i1l2237:
  3993     004F  084D               	movf	___flmul@bexp,w
  3994     0050  1903               	btfsc	3,2
  3995     0051  2853               	goto	u254_21
  3996     0052  2854               	goto	u254_20
  3997     0053                     u254_21:
  3998     0053  2863               	goto	i1l2245
  3999     0054                     u254_20:
  4000     0054                     i1l2239:
  4001     0054  0A4D               	incf	___flmul@bexp,w
  4002     0055  1D03               	btfss	3,2
  4003     0056  2858               	goto	u255_21
  4004     0057  2859               	goto	u255_20
  4005     0058                     u255_21:
  4006     0058  2861               	goto	i1l2243
  4007     0059                     u255_20:
  4008     0059                     i1l2241:
  4009     0059  3000               	movlw	0
  4010     005A  00BD               	movwf	___flmul@b+3
  4011     005B  3000               	movlw	0
  4012     005C  00BC               	movwf	___flmul@b+2
  4013     005D  3000               	movlw	0
  4014     005E  00BB               	movwf	___flmul@b+1
  4015     005F  3000               	movlw	0
  4016     0060  00BA               	movwf	___flmul@b
  4017     0061                     i1l2243:
  4018     0061  17BC               	bsf	___flmul@b+2,7
  4019     0062  286B               	goto	i1l2247
  4020     0063                     i1l2245:
  4021     0063  3000               	movlw	0
  4022     0064  00BD               	movwf	___flmul@b+3
  4023     0065  3000               	movlw	0
  4024     0066  00BC               	movwf	___flmul@b+2
  4025     0067  3000               	movlw	0
  4026     0068  00BB               	movwf	___flmul@b+1
  4027     0069  3000               	movlw	0
  4028     006A  00BA               	movwf	___flmul@b
  4029     006B                     i1l2247:
  4030     006B  0841               	movf	___flmul@a+3,w
  4031     006C  3980               	andlw	128
  4032     006D  00FF               	movwf	btemp+1
  4033     006E  087F               	movf	btemp+1,w
  4034     006F  06C7               	xorwf	___flmul@sign,f
  4035     0070                     i1l2249:
  4036     0070  0841               	movf	___flmul@a+3,w
  4037     0071  00C2               	movwf	??___flmul
  4038     0072  0742               	addwf	??___flmul,w
  4039     0073  00CC               	movwf	___flmul@aexp
  4040     0074                     i1l2251:
  4041     0074  1FC0               	btfss	___flmul@a+2,7
  4042     0075  2877               	goto	u256_21
  4043     0076  2878               	goto	u256_20
  4044     0077                     u256_21:
  4045     0077  2879               	goto	i1l2255
  4046     0078                     u256_20:
  4047     0078                     i1l2253:
  4048     0078  144C               	bsf	___flmul@aexp,0
  4049     0079                     i1l2255:
  4050     0079  084C               	movf	___flmul@aexp,w
  4051     007A  1903               	btfsc	3,2
  4052     007B  287D               	goto	u257_21
  4053     007C  287E               	goto	u257_20
  4054     007D                     u257_21:
  4055     007D  288D               	goto	i1l2263
  4056     007E                     u257_20:
  4057     007E                     i1l2257:
  4058     007E  0A4C               	incf	___flmul@aexp,w
  4059     007F  1D03               	btfss	3,2
  4060     0080  2882               	goto	u258_21
  4061     0081  2883               	goto	u258_20
  4062     0082                     u258_21:
  4063     0082  288B               	goto	i1l2261
  4064     0083                     u258_20:
  4065     0083                     i1l2259:
  4066     0083  3000               	movlw	0
  4067     0084  00C1               	movwf	___flmul@a+3
  4068     0085  3000               	movlw	0
  4069     0086  00C0               	movwf	___flmul@a+2
  4070     0087  3000               	movlw	0
  4071     0088  00BF               	movwf	___flmul@a+1
  4072     0089  3000               	movlw	0
  4073     008A  00BE               	movwf	___flmul@a
  4074     008B                     i1l2261:
  4075     008B  17C0               	bsf	___flmul@a+2,7
  4076     008C  2895               	goto	i1l2265
  4077     008D                     i1l2263:
  4078     008D  3000               	movlw	0
  4079     008E  00C1               	movwf	___flmul@a+3
  4080     008F  3000               	movlw	0
  4081     0090  00C0               	movwf	___flmul@a+2
  4082     0091  3000               	movlw	0
  4083     0092  00BF               	movwf	___flmul@a+1
  4084     0093  3000               	movlw	0
  4085     0094  00BE               	movwf	___flmul@a
  4086     0095                     i1l2265:
  4087     0095  084C               	movf	___flmul@aexp,w
  4088     0096  1903               	btfsc	3,2
  4089     0097  2899               	goto	u259_21
  4090     0098  289A               	goto	u259_20
  4091     0099                     u259_21:
  4092     0099  289F               	goto	i1l2269
  4093     009A                     u259_20:
  4094     009A                     i1l2267:
  4095     009A  084D               	movf	___flmul@bexp,w
  4096     009B  1D03               	btfss	3,2
  4097     009C  289E               	goto	u260_21
  4098     009D  289F               	goto	u260_20
  4099     009E                     u260_21:
  4100     009E  28A8               	goto	i1l2273
  4101     009F                     u260_20:
  4102     009F                     i1l2269:
  4103     009F  3000               	movlw	0
  4104     00A0  00BD               	movwf	?___flmul+3
  4105     00A1  3000               	movlw	0
  4106     00A2  00BC               	movwf	?___flmul+2
  4107     00A3  3000               	movlw	0
  4108     00A4  00BB               	movwf	?___flmul+1
  4109     00A5  3000               	movlw	0
  4110     00A6  00BA               	movwf	?___flmul
  4111     00A7  2B85               	goto	i1l806
  4112     00A8                     i1l2273:
  4113     00A8  083A               	movf	___flmul@b,w
  4114     00A9  00F0               	movwf	__Umul8_16@multiplicand
  4115     00AA  0840               	movf	___flmul@a+2,w
  4116     00AB  120A  158A  2212  120A  118A  	fcall	__Umul8_16
  4117     00B0  0871               	movf	?__Umul8_16+1,w
  4118     00B1  1283               	bcf	3,5	;RP0=0, select bank0
  4119     00B2  1303               	bcf	3,6	;RP1=0, select bank0
  4120     00B3  00D3               	movwf	___flmul@temp+1
  4121     00B4  0870               	movf	?__Umul8_16,w
  4122     00B5  00D2               	movwf	___flmul@temp
  4123     00B6                     i1l2275:
  4124     00B6  0852               	movf	___flmul@temp,w
  4125     00B7  00C2               	movwf	??___flmul
  4126     00B8  01C3               	clrf	??___flmul+1
  4127     00B9  01C4               	clrf	??___flmul+2
  4128     00BA  01C5               	clrf	??___flmul+3
  4129     00BB  0845               	movf	??___flmul+3,w
  4130     00BC  00CB               	movwf	___flmul@grs+3
  4131     00BD  0844               	movf	??___flmul+2,w
  4132     00BE  00CA               	movwf	___flmul@grs+2
  4133     00BF  0843               	movf	??___flmul+1,w
  4134     00C0  00C9               	movwf	___flmul@grs+1
  4135     00C1  0842               	movf	??___flmul,w
  4136     00C2  00C8               	movwf	___flmul@grs
  4137     00C3                     i1l2277:
  4138     00C3  0853               	movf	___flmul@temp+1,w
  4139     00C4  00C2               	movwf	??___flmul
  4140     00C5  01C3               	clrf	??___flmul+1
  4141     00C6  01C4               	clrf	??___flmul+2
  4142     00C7  01C5               	clrf	??___flmul+3
  4143     00C8  0845               	movf	??___flmul+3,w
  4144     00C9  00D1               	movwf	___flmul@prod+3
  4145     00CA  0844               	movf	??___flmul+2,w
  4146     00CB  00D0               	movwf	___flmul@prod+2
  4147     00CC  0843               	movf	??___flmul+1,w
  4148     00CD  00CF               	movwf	___flmul@prod+1
  4149     00CE  0842               	movf	??___flmul,w
  4150     00CF  00CE               	movwf	___flmul@prod
  4151     00D0  083B               	movf	___flmul@b+1,w
  4152     00D1  00F0               	movwf	__Umul8_16@multiplicand
  4153     00D2  083F               	movf	___flmul@a+1,w
  4154     00D3  120A  158A  2212  120A  118A  	fcall	__Umul8_16
  4155     00D8  0871               	movf	?__Umul8_16+1,w
  4156     00D9  1283               	bcf	3,5	;RP0=0, select bank0
  4157     00DA  1303               	bcf	3,6	;RP1=0, select bank0
  4158     00DB  00D3               	movwf	___flmul@temp+1
  4159     00DC  0870               	movf	?__Umul8_16,w
  4160     00DD  00D2               	movwf	___flmul@temp
  4161     00DE                     i1l2279:
  4162     00DE  0852               	movf	___flmul@temp,w
  4163     00DF  00C2               	movwf	??___flmul
  4164     00E0  01C3               	clrf	??___flmul+1
  4165     00E1  01C4               	clrf	??___flmul+2
  4166     00E2  01C5               	clrf	??___flmul+3
  4167     00E3  0842               	movf	??___flmul,w
  4168     00E4  07C8               	addwf	___flmul@grs,f
  4169     00E5  0843               	movf	??___flmul+1,w
  4170     00E6  1103               	clrz
  4171     00E7  1803               	skipnc
  4172     00E8  3E01               	addlw	1
  4173     00E9  1903               	skipnz
  4174     00EA  28EC               	goto	u261_21
  4175     00EB  07C9               	addwf	___flmul@grs+1,f
  4176     00EC                     u261_21:
  4177     00EC  0844               	movf	??___flmul+2,w
  4178     00ED  1103               	clrz
  4179     00EE  1803               	skipnc
  4180     00EF  3E01               	addlw	1
  4181     00F0  1903               	skipnz
  4182     00F1  28F3               	goto	u261_22
  4183     00F2  07CA               	addwf	___flmul@grs+2,f
  4184     00F3                     u261_22:
  4185     00F3  0845               	movf	??___flmul+3,w
  4186     00F4  1103               	clrz
  4187     00F5  1803               	skipnc
  4188     00F6  3E01               	addlw	1
  4189     00F7  1903               	skipnz
  4190     00F8  28FA               	goto	u261_23
  4191     00F9  07CB               	addwf	___flmul@grs+3,f
  4192     00FA                     u261_23:
  4193     00FA                     i1l2281:
  4194     00FA  0853               	movf	___flmul@temp+1,w
  4195     00FB  00C2               	movwf	??___flmul
  4196     00FC  01C3               	clrf	??___flmul+1
  4197     00FD  01C4               	clrf	??___flmul+2
  4198     00FE  01C5               	clrf	??___flmul+3
  4199     00FF  0842               	movf	??___flmul,w
  4200     0100  07CE               	addwf	___flmul@prod,f
  4201     0101  0843               	movf	??___flmul+1,w
  4202     0102  1103               	clrz
  4203     0103  1803               	skipnc
  4204     0104  3E01               	addlw	1
  4205     0105  1903               	skipnz
  4206     0106  2908               	goto	u262_21
  4207     0107  07CF               	addwf	___flmul@prod+1,f
  4208     0108                     u262_21:
  4209     0108  0844               	movf	??___flmul+2,w
  4210     0109  1103               	clrz
  4211     010A  1803               	skipnc
  4212     010B  3E01               	addlw	1
  4213     010C  1903               	skipnz
  4214     010D  290F               	goto	u262_22
  4215     010E  07D0               	addwf	___flmul@prod+2,f
  4216     010F                     u262_22:
  4217     010F  0845               	movf	??___flmul+3,w
  4218     0110  1103               	clrz
  4219     0111  1803               	skipnc
  4220     0112  3E01               	addlw	1
  4221     0113  1903               	skipnz
  4222     0114  2916               	goto	u262_23
  4223     0115  07D1               	addwf	___flmul@prod+3,f
  4224     0116                     u262_23:
  4225     0116  083C               	movf	___flmul@b+2,w
  4226     0117  00F0               	movwf	__Umul8_16@multiplicand
  4227     0118  083E               	movf	___flmul@a,w
  4228     0119  120A  158A  2212  120A  118A  	fcall	__Umul8_16
  4229     011E  0871               	movf	?__Umul8_16+1,w
  4230     011F  1283               	bcf	3,5	;RP0=0, select bank0
  4231     0120  1303               	bcf	3,6	;RP1=0, select bank0
  4232     0121  00D3               	movwf	___flmul@temp+1
  4233     0122  0870               	movf	?__Umul8_16,w
  4234     0123  00D2               	movwf	___flmul@temp
  4235     0124                     i1l2283:
  4236     0124  0852               	movf	___flmul@temp,w
  4237     0125  00C2               	movwf	??___flmul
  4238     0126  01C3               	clrf	??___flmul+1
  4239     0127  01C4               	clrf	??___flmul+2
  4240     0128  01C5               	clrf	??___flmul+3
  4241     0129  0842               	movf	??___flmul,w
  4242     012A  07C8               	addwf	___flmul@grs,f
  4243     012B  0843               	movf	??___flmul+1,w
  4244     012C  1103               	clrz
  4245     012D  1803               	skipnc
  4246     012E  3E01               	addlw	1
  4247     012F  1903               	skipnz
  4248     0130  2932               	goto	u263_21
  4249     0131  07C9               	addwf	___flmul@grs+1,f
  4250     0132                     u263_21:
  4251     0132  0844               	movf	??___flmul+2,w
  4252     0133  1103               	clrz
  4253     0134  1803               	skipnc
  4254     0135  3E01               	addlw	1
  4255     0136  1903               	skipnz
  4256     0137  2939               	goto	u263_22
  4257     0138  07CA               	addwf	___flmul@grs+2,f
  4258     0139                     u263_22:
  4259     0139  0845               	movf	??___flmul+3,w
  4260     013A  1103               	clrz
  4261     013B  1803               	skipnc
  4262     013C  3E01               	addlw	1
  4263     013D  1903               	skipnz
  4264     013E  2940               	goto	u263_23
  4265     013F  07CB               	addwf	___flmul@grs+3,f
  4266     0140                     u263_23:
  4267     0140                     i1l2285:
  4268     0140  0853               	movf	___flmul@temp+1,w
  4269     0141  00C2               	movwf	??___flmul
  4270     0142  01C3               	clrf	??___flmul+1
  4271     0143  01C4               	clrf	??___flmul+2
  4272     0144  01C5               	clrf	??___flmul+3
  4273     0145  0842               	movf	??___flmul,w
  4274     0146  07CE               	addwf	___flmul@prod,f
  4275     0147  0843               	movf	??___flmul+1,w
  4276     0148  1103               	clrz
  4277     0149  1803               	skipnc
  4278     014A  3E01               	addlw	1
  4279     014B  1903               	skipnz
  4280     014C  294E               	goto	u264_21
  4281     014D  07CF               	addwf	___flmul@prod+1,f
  4282     014E                     u264_21:
  4283     014E  0844               	movf	??___flmul+2,w
  4284     014F  1103               	clrz
  4285     0150  1803               	skipnc
  4286     0151  3E01               	addlw	1
  4287     0152  1903               	skipnz
  4288     0153  2955               	goto	u264_22
  4289     0154  07D0               	addwf	___flmul@prod+2,f
  4290     0155                     u264_22:
  4291     0155  0845               	movf	??___flmul+3,w
  4292     0156  1103               	clrz
  4293     0157  1803               	skipnc
  4294     0158  3E01               	addlw	1
  4295     0159  1903               	skipnz
  4296     015A  295C               	goto	u264_23
  4297     015B  07D1               	addwf	___flmul@prod+3,f
  4298     015C                     u264_23:
  4299     015C                     i1l2287:
  4300     015C  3008               	movlw	8
  4301     015D  00C2               	movwf	??___flmul
  4302     015E                     u265_25:
  4303     015E  1003               	clrc
  4304     015F  0DC8               	rlf	___flmul@grs,f
  4305     0160  0DC9               	rlf	___flmul@grs+1,f
  4306     0161  0DCA               	rlf	___flmul@grs+2,f
  4307     0162  0DCB               	rlf	___flmul@grs+3,f
  4308     0163  0BC2               	decfsz	??___flmul,f
  4309     0164  295E               	goto	u265_25
  4310     0165                     i1l2289:
  4311     0165  083B               	movf	___flmul@b+1,w
  4312     0166  00F0               	movwf	__Umul8_16@multiplicand
  4313     0167  083E               	movf	___flmul@a,w
  4314     0168  120A  158A  2212  120A  118A  	fcall	__Umul8_16
  4315     016D  0871               	movf	?__Umul8_16+1,w
  4316     016E  1283               	bcf	3,5	;RP0=0, select bank0
  4317     016F  1303               	bcf	3,6	;RP1=0, select bank0
  4318     0170  00D3               	movwf	___flmul@temp+1
  4319     0171  0870               	movf	?__Umul8_16,w
  4320     0172  00D2               	movwf	___flmul@temp
  4321     0173                     i1l2291:
  4322     0173  0852               	movf	___flmul@temp,w
  4323     0174  00C2               	movwf	??___flmul
  4324     0175  0853               	movf	___flmul@temp+1,w
  4325     0176  00C3               	movwf	??___flmul+1
  4326     0177  01C4               	clrf	??___flmul+2
  4327     0178  01C5               	clrf	??___flmul+3
  4328     0179  0842               	movf	??___flmul,w
  4329     017A  07C8               	addwf	___flmul@grs,f
  4330     017B  0843               	movf	??___flmul+1,w
  4331     017C  1103               	clrz
  4332     017D  1803               	skipnc
  4333     017E  3E01               	addlw	1
  4334     017F  1903               	skipnz
  4335     0180  2982               	goto	u266_21
  4336     0181  07C9               	addwf	___flmul@grs+1,f
  4337     0182                     u266_21:
  4338     0182  0844               	movf	??___flmul+2,w
  4339     0183  1103               	clrz
  4340     0184  1803               	skipnc
  4341     0185  3E01               	addlw	1
  4342     0186  1903               	skipnz
  4343     0187  2989               	goto	u266_22
  4344     0188  07CA               	addwf	___flmul@grs+2,f
  4345     0189                     u266_22:
  4346     0189  0845               	movf	??___flmul+3,w
  4347     018A  1103               	clrz
  4348     018B  1803               	skipnc
  4349     018C  3E01               	addlw	1
  4350     018D  1903               	skipnz
  4351     018E  2990               	goto	u266_23
  4352     018F  07CB               	addwf	___flmul@grs+3,f
  4353     0190                     u266_23:
  4354     0190                     i1l2293:
  4355     0190  083A               	movf	___flmul@b,w
  4356     0191  00F0               	movwf	__Umul8_16@multiplicand
  4357     0192  083F               	movf	___flmul@a+1,w
  4358     0193  120A  158A  2212  120A  118A  	fcall	__Umul8_16
  4359     0198  0871               	movf	?__Umul8_16+1,w
  4360     0199  1283               	bcf	3,5	;RP0=0, select bank0
  4361     019A  1303               	bcf	3,6	;RP1=0, select bank0
  4362     019B  00D3               	movwf	___flmul@temp+1
  4363     019C  0870               	movf	?__Umul8_16,w
  4364     019D  00D2               	movwf	___flmul@temp
  4365     019E                     i1l2295:
  4366     019E  0852               	movf	___flmul@temp,w
  4367     019F  00C2               	movwf	??___flmul
  4368     01A0  0853               	movf	___flmul@temp+1,w
  4369     01A1  00C3               	movwf	??___flmul+1
  4370     01A2  01C4               	clrf	??___flmul+2
  4371     01A3  01C5               	clrf	??___flmul+3
  4372     01A4  0842               	movf	??___flmul,w
  4373     01A5  07C8               	addwf	___flmul@grs,f
  4374     01A6  0843               	movf	??___flmul+1,w
  4375     01A7  1103               	clrz
  4376     01A8  1803               	skipnc
  4377     01A9  3E01               	addlw	1
  4378     01AA  1903               	skipnz
  4379     01AB  29AD               	goto	u267_21
  4380     01AC  07C9               	addwf	___flmul@grs+1,f
  4381     01AD                     u267_21:
  4382     01AD  0844               	movf	??___flmul+2,w
  4383     01AE  1103               	clrz
  4384     01AF  1803               	skipnc
  4385     01B0  3E01               	addlw	1
  4386     01B1  1903               	skipnz
  4387     01B2  29B4               	goto	u267_22
  4388     01B3  07CA               	addwf	___flmul@grs+2,f
  4389     01B4                     u267_22:
  4390     01B4  0845               	movf	??___flmul+3,w
  4391     01B5  1103               	clrz
  4392     01B6  1803               	skipnc
  4393     01B7  3E01               	addlw	1
  4394     01B8  1903               	skipnz
  4395     01B9  29BB               	goto	u267_23
  4396     01BA  07CB               	addwf	___flmul@grs+3,f
  4397     01BB                     u267_23:
  4398     01BB                     i1l2297:
  4399     01BB  3008               	movlw	8
  4400     01BC  00C2               	movwf	??___flmul
  4401     01BD                     u268_25:
  4402     01BD  1003               	clrc
  4403     01BE  0DC8               	rlf	___flmul@grs,f
  4404     01BF  0DC9               	rlf	___flmul@grs+1,f
  4405     01C0  0DCA               	rlf	___flmul@grs+2,f
  4406     01C1  0DCB               	rlf	___flmul@grs+3,f
  4407     01C2  0BC2               	decfsz	??___flmul,f
  4408     01C3  29BD               	goto	u268_25
  4409     01C4  083A               	movf	___flmul@b,w
  4410     01C5  00F0               	movwf	__Umul8_16@multiplicand
  4411     01C6  083E               	movf	___flmul@a,w
  4412     01C7  120A  158A  2212  120A  118A  	fcall	__Umul8_16
  4413     01CC  0871               	movf	?__Umul8_16+1,w
  4414     01CD  1283               	bcf	3,5	;RP0=0, select bank0
  4415     01CE  1303               	bcf	3,6	;RP1=0, select bank0
  4416     01CF  00D3               	movwf	___flmul@temp+1
  4417     01D0  0870               	movf	?__Umul8_16,w
  4418     01D1  00D2               	movwf	___flmul@temp
  4419     01D2                     i1l2299:
  4420     01D2  0852               	movf	___flmul@temp,w
  4421     01D3  00C2               	movwf	??___flmul
  4422     01D4  0853               	movf	___flmul@temp+1,w
  4423     01D5  00C3               	movwf	??___flmul+1
  4424     01D6  01C4               	clrf	??___flmul+2
  4425     01D7  01C5               	clrf	??___flmul+3
  4426     01D8  0842               	movf	??___flmul,w
  4427     01D9  07C8               	addwf	___flmul@grs,f
  4428     01DA  0843               	movf	??___flmul+1,w
  4429     01DB  1103               	clrz
  4430     01DC  1803               	skipnc
  4431     01DD  3E01               	addlw	1
  4432     01DE  1903               	skipnz
  4433     01DF  29E1               	goto	u269_21
  4434     01E0  07C9               	addwf	___flmul@grs+1,f
  4435     01E1                     u269_21:
  4436     01E1  0844               	movf	??___flmul+2,w
  4437     01E2  1103               	clrz
  4438     01E3  1803               	skipnc
  4439     01E4  3E01               	addlw	1
  4440     01E5  1903               	skipnz
  4441     01E6  29E8               	goto	u269_22
  4442     01E7  07CA               	addwf	___flmul@grs+2,f
  4443     01E8                     u269_22:
  4444     01E8  0845               	movf	??___flmul+3,w
  4445     01E9  1103               	clrz
  4446     01EA  1803               	skipnc
  4447     01EB  3E01               	addlw	1
  4448     01EC  1903               	skipnz
  4449     01ED  29EF               	goto	u269_23
  4450     01EE  07CB               	addwf	___flmul@grs+3,f
  4451     01EF                     u269_23:
  4452     01EF                     i1l2301:
  4453     01EF  083B               	movf	___flmul@b+1,w
  4454     01F0  00F0               	movwf	__Umul8_16@multiplicand
  4455     01F1  0840               	movf	___flmul@a+2,w
  4456     01F2  120A  158A  2212  120A  118A  	fcall	__Umul8_16
  4457     01F7  0871               	movf	?__Umul8_16+1,w
  4458     01F8  1283               	bcf	3,5	;RP0=0, select bank0
  4459     01F9  1303               	bcf	3,6	;RP1=0, select bank0
  4460     01FA  00D3               	movwf	___flmul@temp+1
  4461     01FB  0870               	movf	?__Umul8_16,w
  4462     01FC  00D2               	movwf	___flmul@temp
  4463     01FD  0852               	movf	___flmul@temp,w
  4464     01FE  00C2               	movwf	??___flmul
  4465     01FF  0853               	movf	___flmul@temp+1,w
  4466     0200  00C3               	movwf	??___flmul+1
  4467     0201  01C4               	clrf	??___flmul+2
  4468     0202  01C5               	clrf	??___flmul+3
  4469     0203  0842               	movf	??___flmul,w
  4470     0204  07CE               	addwf	___flmul@prod,f
  4471     0205  0843               	movf	??___flmul+1,w
  4472     0206  1103               	clrz
  4473     0207  1803               	skipnc
  4474     0208  3E01               	addlw	1
  4475     0209  1903               	skipnz
  4476     020A  2A0C               	goto	u270_21
  4477     020B  07CF               	addwf	___flmul@prod+1,f
  4478     020C                     u270_21:
  4479     020C  0844               	movf	??___flmul+2,w
  4480     020D  1103               	clrz
  4481     020E  1803               	skipnc
  4482     020F  3E01               	addlw	1
  4483     0210  1903               	skipnz
  4484     0211  2A13               	goto	u270_22
  4485     0212  07D0               	addwf	___flmul@prod+2,f
  4486     0213                     u270_22:
  4487     0213  0845               	movf	??___flmul+3,w
  4488     0214  1103               	clrz
  4489     0215  1803               	skipnc
  4490     0216  3E01               	addlw	1
  4491     0217  1903               	skipnz
  4492     0218  2A1A               	goto	u270_23
  4493     0219  07D1               	addwf	___flmul@prod+3,f
  4494     021A                     u270_23:
  4495     021A                     i1l2303:
  4496     021A  083C               	movf	___flmul@b+2,w
  4497     021B  00F0               	movwf	__Umul8_16@multiplicand
  4498     021C  083F               	movf	___flmul@a+1,w
  4499     021D  120A  158A  2212  120A  118A  	fcall	__Umul8_16
  4500     0222  0871               	movf	?__Umul8_16+1,w
  4501     0223  1283               	bcf	3,5	;RP0=0, select bank0
  4502     0224  1303               	bcf	3,6	;RP1=0, select bank0
  4503     0225  00D3               	movwf	___flmul@temp+1
  4504     0226  0870               	movf	?__Umul8_16,w
  4505     0227  00D2               	movwf	___flmul@temp
  4506     0228                     i1l2305:
  4507     0228  0852               	movf	___flmul@temp,w
  4508     0229  00C2               	movwf	??___flmul
  4509     022A  0853               	movf	___flmul@temp+1,w
  4510     022B  00C3               	movwf	??___flmul+1
  4511     022C  01C4               	clrf	??___flmul+2
  4512     022D  01C5               	clrf	??___flmul+3
  4513     022E  0842               	movf	??___flmul,w
  4514     022F  07CE               	addwf	___flmul@prod,f
  4515     0230  0843               	movf	??___flmul+1,w
  4516     0231  1103               	clrz
  4517     0232  1803               	skipnc
  4518     0233  3E01               	addlw	1
  4519     0234  1903               	skipnz
  4520     0235  2A37               	goto	u271_21
  4521     0236  07CF               	addwf	___flmul@prod+1,f
  4522     0237                     u271_21:
  4523     0237  0844               	movf	??___flmul+2,w
  4524     0238  1103               	clrz
  4525     0239  1803               	skipnc
  4526     023A  3E01               	addlw	1
  4527     023B  1903               	skipnz
  4528     023C  2A3E               	goto	u271_22
  4529     023D  07D0               	addwf	___flmul@prod+2,f
  4530     023E                     u271_22:
  4531     023E  0845               	movf	??___flmul+3,w
  4532     023F  1103               	clrz
  4533     0240  1803               	skipnc
  4534     0241  3E01               	addlw	1
  4535     0242  1903               	skipnz
  4536     0243  2A45               	goto	u271_23
  4537     0244  07D1               	addwf	___flmul@prod+3,f
  4538     0245                     u271_23:
  4539     0245  083C               	movf	___flmul@b+2,w
  4540     0246  00F0               	movwf	__Umul8_16@multiplicand
  4541     0247  0840               	movf	___flmul@a+2,w
  4542     0248  120A  158A  2212  120A  118A  	fcall	__Umul8_16
  4543     024D  0871               	movf	?__Umul8_16+1,w
  4544     024E  1283               	bcf	3,5	;RP0=0, select bank0
  4545     024F  1303               	bcf	3,6	;RP1=0, select bank0
  4546     0250  00D3               	movwf	___flmul@temp+1
  4547     0251  0870               	movf	?__Umul8_16,w
  4548     0252  00D2               	movwf	___flmul@temp
  4549     0253                     i1l2307:
  4550     0253  0852               	movf	___flmul@temp,w
  4551     0254  00C2               	movwf	??___flmul
  4552     0255  0853               	movf	___flmul@temp+1,w
  4553     0256  00C3               	movwf	??___flmul+1
  4554     0257  01C4               	clrf	??___flmul+2
  4555     0258  01C5               	clrf	??___flmul+3
  4556     0259  3008               	movlw	8
  4557     025A                     u272_25:
  4558     025A  1003               	clrc
  4559     025B  0DC2               	rlf	??___flmul,f
  4560     025C  0DC3               	rlf	??___flmul+1,f
  4561     025D  0DC4               	rlf	??___flmul+2,f
  4562     025E  0DC5               	rlf	??___flmul+3,f
  4563     025F                     u272_20:
  4564     025F  3EFF               	addlw	-1
  4565     0260  1D03               	skipz
  4566     0261  2A5A               	goto	u272_25
  4567     0262  0842               	movf	??___flmul,w
  4568     0263  07CE               	addwf	___flmul@prod,f
  4569     0264  0843               	movf	??___flmul+1,w
  4570     0265  1103               	clrz
  4571     0266  1803               	skipnc
  4572     0267  3E01               	addlw	1
  4573     0268  1903               	skipnz
  4574     0269  2A6B               	goto	u273_21
  4575     026A  07CF               	addwf	___flmul@prod+1,f
  4576     026B                     u273_21:
  4577     026B  0844               	movf	??___flmul+2,w
  4578     026C  1103               	clrz
  4579     026D  1803               	skipnc
  4580     026E  3E01               	addlw	1
  4581     026F  1903               	skipnz
  4582     0270  2A72               	goto	u273_22
  4583     0271  07D0               	addwf	___flmul@prod+2,f
  4584     0272                     u273_22:
  4585     0272  0845               	movf	??___flmul+3,w
  4586     0273  1103               	clrz
  4587     0274  1803               	skipnc
  4588     0275  3E01               	addlw	1
  4589     0276  1903               	skipnz
  4590     0277  2A79               	goto	u273_23
  4591     0278  07D1               	addwf	___flmul@prod+3,f
  4592     0279                     u273_23:
  4593     0279                     i1l2309:
  4594     0279  0848               	movf	___flmul@grs,w
  4595     027A  00C2               	movwf	??___flmul
  4596     027B  0849               	movf	___flmul@grs+1,w
  4597     027C  00C3               	movwf	??___flmul+1
  4598     027D  084A               	movf	___flmul@grs+2,w
  4599     027E  00C4               	movwf	??___flmul+2
  4600     027F  084B               	movf	___flmul@grs+3,w
  4601     0280  00C5               	movwf	??___flmul+3
  4602     0281  3018               	movlw	24
  4603     0282                     u274_25:
  4604     0282  1003               	clrc
  4605     0283  0CC5               	rrf	??___flmul+3,f
  4606     0284  0CC4               	rrf	??___flmul+2,f
  4607     0285  0CC3               	rrf	??___flmul+1,f
  4608     0286  0CC2               	rrf	??___flmul,f
  4609     0287                     u274_20:
  4610     0287  3EFF               	addlw	-1
  4611     0288  1D03               	skipz
  4612     0289  2A82               	goto	u274_25
  4613     028A  0842               	movf	??___flmul,w
  4614     028B  07CE               	addwf	___flmul@prod,f
  4615     028C  0843               	movf	??___flmul+1,w
  4616     028D  1103               	clrz
  4617     028E  1803               	skipnc
  4618     028F  3E01               	addlw	1
  4619     0290  1903               	skipnz
  4620     0291  2A93               	goto	u275_21
  4621     0292  07CF               	addwf	___flmul@prod+1,f
  4622     0293                     u275_21:
  4623     0293  0844               	movf	??___flmul+2,w
  4624     0294  1103               	clrz
  4625     0295  1803               	skipnc
  4626     0296  3E01               	addlw	1
  4627     0297  1903               	skipnz
  4628     0298  2A9A               	goto	u275_22
  4629     0299  07D0               	addwf	___flmul@prod+2,f
  4630     029A                     u275_22:
  4631     029A  0845               	movf	??___flmul+3,w
  4632     029B  1103               	clrz
  4633     029C  1803               	skipnc
  4634     029D  3E01               	addlw	1
  4635     029E  1903               	skipnz
  4636     029F  2AA1               	goto	u275_23
  4637     02A0  07D1               	addwf	___flmul@prod+3,f
  4638     02A1                     u275_23:
  4639     02A1                     i1l2311:
  4640     02A1  3008               	movlw	8
  4641     02A2  00C2               	movwf	??___flmul
  4642     02A3                     u276_25:
  4643     02A3  1003               	clrc
  4644     02A4  0DC8               	rlf	___flmul@grs,f
  4645     02A5  0DC9               	rlf	___flmul@grs+1,f
  4646     02A6  0DCA               	rlf	___flmul@grs+2,f
  4647     02A7  0DCB               	rlf	___flmul@grs+3,f
  4648     02A8  0BC2               	decfsz	??___flmul,f
  4649     02A9  2AA3               	goto	u276_25
  4650     02AA                     i1l2313:
  4651     02AA  084D               	movf	___flmul@bexp,w
  4652     02AB  074C               	addwf	___flmul@aexp,w
  4653     02AC  00C2               	movwf	??___flmul
  4654     02AD  01C3               	clrf	??___flmul+1
  4655     02AE  0DC3               	rlf	??___flmul+1,f
  4656     02AF  0842               	movf	??___flmul,w
  4657     02B0  3E82               	addlw	130
  4658     02B1  00D2               	movwf	___flmul@temp
  4659     02B2  0843               	movf	??___flmul+1,w
  4660     02B3  1803               	skipnc
  4661     02B4  3E01               	addlw	1
  4662     02B5  3EFF               	addlw	255
  4663     02B6  00D3               	movwf	___flmul@temp+1
  4664     02B7  2AD5               	goto	i1l2325
  4665     02B8                     i1l2315:
  4666     02B8  3001               	movlw	1
  4667     02B9  00C2               	movwf	??___flmul
  4668     02BA                     u277_25:
  4669     02BA  1003               	clrc
  4670     02BB  0DCE               	rlf	___flmul@prod,f
  4671     02BC  0DCF               	rlf	___flmul@prod+1,f
  4672     02BD  0DD0               	rlf	___flmul@prod+2,f
  4673     02BE  0DD1               	rlf	___flmul@prod+3,f
  4674     02BF  0BC2               	decfsz	??___flmul,f
  4675     02C0  2ABA               	goto	u277_25
  4676     02C1                     i1l2317:
  4677     02C1  1FCB               	btfss	___flmul@grs+3,7
  4678     02C2  2AC4               	goto	u278_21
  4679     02C3  2AC5               	goto	u278_20
  4680     02C4                     u278_21:
  4681     02C4  2AC6               	goto	i1l2321
  4682     02C5                     u278_20:
  4683     02C5                     i1l2319:
  4684     02C5  144E               	bsf	___flmul@prod,0
  4685     02C6                     i1l2321:
  4686     02C6  3001               	movlw	1
  4687     02C7  00C2               	movwf	??___flmul
  4688     02C8                     u279_25:
  4689     02C8  1003               	clrc
  4690     02C9  0DC8               	rlf	___flmul@grs,f
  4691     02CA  0DC9               	rlf	___flmul@grs+1,f
  4692     02CB  0DCA               	rlf	___flmul@grs+2,f
  4693     02CC  0DCB               	rlf	___flmul@grs+3,f
  4694     02CD  0BC2               	decfsz	??___flmul,f
  4695     02CE  2AC8               	goto	u279_25
  4696     02CF                     i1l2323:
  4697     02CF  30FF               	movlw	255
  4698     02D0  07D2               	addwf	___flmul@temp,f
  4699     02D1  1803               	skipnc
  4700     02D2  0AD3               	incf	___flmul@temp+1,f
  4701     02D3  30FF               	movlw	255
  4702     02D4  07D3               	addwf	___flmul@temp+1,f
  4703     02D5                     i1l2325:
  4704     02D5  1FD0               	btfss	___flmul@prod+2,7
  4705     02D6  2AD8               	goto	u280_21
  4706     02D7  2AD9               	goto	u280_20
  4707     02D8                     u280_21:
  4708     02D8  2AB8               	goto	i1l2315
  4709     02D9                     u280_20:
  4710     02D9                     i1l2327:
  4711     02D9  01CC               	clrf	___flmul@aexp
  4712     02DA                     i1l2329:
  4713     02DA  1FCB               	btfss	___flmul@grs+3,7
  4714     02DB  2ADD               	goto	u281_21
  4715     02DC  2ADE               	goto	u281_20
  4716     02DD                     u281_21:
  4717     02DD  2AFA               	goto	i1l2337
  4718     02DE                     u281_20:
  4719     02DE                     i1l2331:
  4720     02DE  30FF               	movlw	255
  4721     02DF  0548               	andwf	___flmul@grs,w
  4722     02E0  00C2               	movwf	??___flmul
  4723     02E1  30FF               	movlw	255
  4724     02E2  0549               	andwf	___flmul@grs+1,w
  4725     02E3  00C3               	movwf	??___flmul+1
  4726     02E4  30FF               	movlw	255
  4727     02E5  054A               	andwf	___flmul@grs+2,w
  4728     02E6  00C4               	movwf	??___flmul+2
  4729     02E7  307F               	movlw	127
  4730     02E8  054B               	andwf	___flmul@grs+3,w
  4731     02E9  00C5               	movwf	??___flmul+3
  4732     02EA  0845               	movf	??___flmul+3,w
  4733     02EB  0444               	iorwf	??___flmul+2,w
  4734     02EC  0443               	iorwf	??___flmul+1,w
  4735     02ED  0442               	iorwf	??___flmul,w
  4736     02EE  1903               	skipnz
  4737     02EF  2AF1               	goto	u282_21
  4738     02F0  2AF2               	goto	u282_20
  4739     02F1                     u282_21:
  4740     02F1  2AF5               	goto	i1l812
  4741     02F2                     u282_20:
  4742     02F2                     i1l2333:
  4743     02F2  01CC               	clrf	___flmul@aexp
  4744     02F3  0ACC               	incf	___flmul@aexp,f
  4745     02F4  2AFA               	goto	i1l2337
  4746     02F5                     i1l812:
  4747     02F5  1C4E               	btfss	___flmul@prod,0
  4748     02F6  2AF8               	goto	u283_21
  4749     02F7  2AF9               	goto	u283_20
  4750     02F8                     u283_21:
  4751     02F8  2AFA               	goto	i1l2337
  4752     02F9                     u283_20:
  4753     02F9  2AF2               	goto	i1l2333
  4754     02FA                     i1l2337:
  4755     02FA  084C               	movf	___flmul@aexp,w
  4756     02FB  1903               	btfsc	3,2
  4757     02FC  2AFE               	goto	u284_21
  4758     02FD  2AFF               	goto	u284_20
  4759     02FE                     u284_21:
  4760     02FE  2B30               	goto	i1l2347
  4761     02FF                     u284_20:
  4762     02FF                     i1l2339:
  4763     02FF  3001               	movlw	1
  4764     0300  07CE               	addwf	___flmul@prod,f
  4765     0301  3000               	movlw	0
  4766     0302  1803               	skipnc
  4767     0303  3001               	movlw	1
  4768     0304  07CF               	addwf	___flmul@prod+1,f
  4769     0305  3000               	movlw	0
  4770     0306  1803               	skipnc
  4771     0307  3001               	movlw	1
  4772     0308  07D0               	addwf	___flmul@prod+2,f
  4773     0309  3000               	movlw	0
  4774     030A  1803               	skipnc
  4775     030B  3001               	movlw	1
  4776     030C  07D1               	addwf	___flmul@prod+3,f
  4777     030D                     i1l2341:
  4778     030D  1C51               	btfss	___flmul@prod+3,0
  4779     030E  2B10               	goto	u285_21
  4780     030F  2B11               	goto	u285_20
  4781     0310                     u285_21:
  4782     0310  2B30               	goto	i1l2347
  4783     0311                     u285_20:
  4784     0311                     i1l2343:
  4785     0311  084E               	movf	___flmul@prod,w
  4786     0312  00C2               	movwf	??___flmul
  4787     0313  084F               	movf	___flmul@prod+1,w
  4788     0314  00C3               	movwf	??___flmul+1
  4789     0315  0850               	movf	___flmul@prod+2,w
  4790     0316  00C4               	movwf	??___flmul+2
  4791     0317  0851               	movf	___flmul@prod+3,w
  4792     0318  00C5               	movwf	??___flmul+3
  4793     0319  3001               	movlw	1
  4794     031A  00C6               	movwf	??___flmul+4
  4795     031B                     u286_25:
  4796     031B  0D45               	rlf	??___flmul+3,w
  4797     031C  0CC5               	rrf	??___flmul+3,f
  4798     031D  0CC4               	rrf	??___flmul+2,f
  4799     031E  0CC3               	rrf	??___flmul+1,f
  4800     031F  0CC2               	rrf	??___flmul,f
  4801     0320                     u286_20:
  4802     0320  0BC6               	decfsz	??___flmul+4,f
  4803     0321  2B1B               	goto	u286_25
  4804     0322  0845               	movf	??___flmul+3,w
  4805     0323  00D1               	movwf	___flmul@prod+3
  4806     0324  0844               	movf	??___flmul+2,w
  4807     0325  00D0               	movwf	___flmul@prod+2
  4808     0326  0843               	movf	??___flmul+1,w
  4809     0327  00CF               	movwf	___flmul@prod+1
  4810     0328  0842               	movf	??___flmul,w
  4811     0329  00CE               	movwf	___flmul@prod
  4812     032A                     i1l2345:
  4813     032A  3001               	movlw	1
  4814     032B  07D2               	addwf	___flmul@temp,f
  4815     032C  1803               	skipnc
  4816     032D  0AD3               	incf	___flmul@temp+1,f
  4817     032E  3000               	movlw	0
  4818     032F  07D3               	addwf	___flmul@temp+1,f
  4819     0330                     i1l2347:
  4820     0330  0853               	movf	___flmul@temp+1,w
  4821     0331  3A80               	xorlw	128
  4822     0332  00FF               	movwf	btemp+1
  4823     0333  3080               	movlw	128
  4824     0334  027F               	subwf	btemp+1,w
  4825     0335  1D03               	skipz
  4826     0336  2B39               	goto	u287_25
  4827     0337  30FF               	movlw	255
  4828     0338  0252               	subwf	___flmul@temp,w
  4829     0339                     u287_25:
  4830     0339  1C03               	skipc
  4831     033A  2B3C               	goto	u287_21
  4832     033B  2B3D               	goto	u287_20
  4833     033C                     u287_21:
  4834     033C  2B48               	goto	i1l2351
  4835     033D                     u287_20:
  4836     033D                     i1l2349:
  4837     033D  307F               	movlw	127
  4838     033E  1283               	bcf	3,5	;RP0=0, select bank0
  4839     033F  1303               	bcf	3,6	;RP1=0, select bank0
  4840     0340  00D1               	movwf	___flmul@prod+3
  4841     0341  3080               	movlw	128
  4842     0342  00D0               	movwf	___flmul@prod+2
  4843     0343  3000               	movlw	0
  4844     0344  00CF               	movwf	___flmul@prod+1
  4845     0345  3000               	movlw	0
  4846     0346  00CE               	movwf	___flmul@prod
  4847     0347  2B79               	goto	i1l2365
  4848     0348                     i1l2351:
  4849     0348  1283               	bcf	3,5	;RP0=0, select bank0
  4850     0349  1303               	bcf	3,6	;RP1=0, select bank0
  4851     034A  0853               	movf	___flmul@temp+1,w
  4852     034B  3A80               	xorlw	128
  4853     034C  00FF               	movwf	btemp+1
  4854     034D  3080               	movlw	128
  4855     034E  027F               	subwf	btemp+1,w
  4856     034F  1D03               	skipz
  4857     0350  2B53               	goto	u288_25
  4858     0351  3001               	movlw	1
  4859     0352  0252               	subwf	___flmul@temp,w
  4860     0353                     u288_25:
  4861     0353  1803               	skipnc
  4862     0354  2B56               	goto	u288_21
  4863     0355  2B57               	goto	u288_20
  4864     0356                     u288_21:
  4865     0356  2B63               	goto	i1l2357
  4866     0357                     u288_20:
  4867     0357                     i1l2353:
  4868     0357  3000               	movlw	0
  4869     0358  1283               	bcf	3,5	;RP0=0, select bank0
  4870     0359  1303               	bcf	3,6	;RP1=0, select bank0
  4871     035A  00D1               	movwf	___flmul@prod+3
  4872     035B  3000               	movlw	0
  4873     035C  00D0               	movwf	___flmul@prod+2
  4874     035D  3000               	movlw	0
  4875     035E  00CF               	movwf	___flmul@prod+1
  4876     035F  3000               	movlw	0
  4877     0360  00CE               	movwf	___flmul@prod
  4878     0361                     i1l2355:
  4879     0361  01C7               	clrf	___flmul@sign
  4880     0362  2B79               	goto	i1l2365
  4881     0363                     i1l2357:
  4882     0363  1283               	bcf	3,5	;RP0=0, select bank0
  4883     0364  1303               	bcf	3,6	;RP1=0, select bank0
  4884     0365  0852               	movf	___flmul@temp,w
  4885     0366  00CD               	movwf	___flmul@bexp
  4886     0367  30FF               	movlw	255
  4887     0368  05CE               	andwf	___flmul@prod,f
  4888     0369  30FF               	movlw	255
  4889     036A  05CF               	andwf	___flmul@prod+1,f
  4890     036B  307F               	movlw	127
  4891     036C  05D0               	andwf	___flmul@prod+2,f
  4892     036D  3000               	movlw	0
  4893     036E  05D1               	andwf	___flmul@prod+3,f
  4894     036F                     i1l2359:
  4895     036F  1C4D               	btfss	___flmul@bexp,0
  4896     0370  2B72               	goto	u289_21
  4897     0371  2B73               	goto	u289_20
  4898     0372                     u289_21:
  4899     0372  2B74               	goto	i1l2363
  4900     0373                     u289_20:
  4901     0373                     i1l2361:
  4902     0373  17D0               	bsf	___flmul@prod+2,7
  4903     0374                     i1l2363:
  4904     0374  084D               	movf	___flmul@bexp,w
  4905     0375  00C2               	movwf	??___flmul
  4906     0376  1003               	clrc
  4907     0377  0C42               	rrf	??___flmul,w
  4908     0378  00D1               	movwf	___flmul@prod+3
  4909     0379                     i1l2365:
  4910     0379  0847               	movf	___flmul@sign,w
  4911     037A  00FF               	movwf	btemp+1
  4912     037B  087F               	movf	btemp+1,w
  4913     037C  04D1               	iorwf	___flmul@prod+3,f
  4914     037D                     i1l2367:
  4915     037D  0851               	movf	___flmul@prod+3,w
  4916     037E  00BD               	movwf	?___flmul+3
  4917     037F  0850               	movf	___flmul@prod+2,w
  4918     0380  00BC               	movwf	?___flmul+2
  4919     0381  084F               	movf	___flmul@prod+1,w
  4920     0382  00BB               	movwf	?___flmul+1
  4921     0383  084E               	movf	___flmul@prod,w
  4922     0384  00BA               	movwf	?___flmul
  4923     0385                     i1l806:
  4924     0385  0008               	return
  4925     0386                     __end_of___flmul:
  4926                           
  4927                           	psect	text13
  4928     0A12                     __ptext13:	
  4929 ;; *************** function __Umul8_16 *****************
  4930 ;; Defined at:
  4931 ;;		line 4 in file "C:\Program Files\Microchip\xc8\v2.45\pic\sources\c99\common\Umul8_16.c"
  4932 ;; Parameters:    Size  Location     Type
  4933 ;;  multiplier      1    wreg     unsigned char 
  4934 ;;  multiplicand    1    0[COMMON] unsigned char 
  4935 ;; Auto vars:     Size  Location     Type
  4936 ;;  multiplier      1    8[COMMON] unsigned char 
  4937 ;;  word_mpld       2    6[COMMON] unsigned short 
  4938 ;;  product         2    4[COMMON] unsigned short 
  4939 ;; Return value:  Size  Location     Type
  4940 ;;                  2    0[COMMON] unsigned int 
  4941 ;; Registers used:
  4942 ;;		wreg, status,2, status,0
  4943 ;; Tracked objects:
  4944 ;;		On entry : 0/0
  4945 ;;		On exit  : 0/0
  4946 ;;		Unchanged: 0/0
  4947 ;; Data sizes:     COMMON   BANK0   BANK1   BANK3   BANK2
  4948 ;;      Params:         2       0       0       0       0
  4949 ;;      Locals:         5       0       0       0       0
  4950 ;;      Temps:          2       0       0       0       0
  4951 ;;      Totals:         9       0       0       0       0
  4952 ;;Total ram usage:        9 bytes
  4953 ;; Hardware stack levels used: 1
  4954 ;; This function calls:
  4955 ;;		Nothing
  4956 ;; This function is called by:
  4957 ;;		___flmul
  4958 ;; This function uses a non-reentrant model
  4959 ;;
  4960                           
  4961     0A12                     __Umul8_16:	
  4962                           ;psect for function __Umul8_16
  4963                           
  4964                           
  4965                           ;incstack = 0
  4966                           ; Regs used in __Umul8_16: [wreg+status,2+status,0]
  4967                           ;__Umul8_16@multiplier stored from wreg
  4968     0A12  00F8               	movwf	__Umul8_16@multiplier
  4969     0A13                     i1l1849:
  4970     0A13  01F4               	clrf	__Umul8_16@product
  4971     0A14  01F5               	clrf	__Umul8_16@product+1
  4972     0A15                     i1l1851:
  4973     0A15  0870               	movf	__Umul8_16@multiplicand,w
  4974     0A16  00F2               	movwf	??__Umul8_16
  4975     0A17  01F3               	clrf	??__Umul8_16+1
  4976     0A18  0872               	movf	??__Umul8_16,w
  4977     0A19  00F6               	movwf	__Umul8_16@word_mpld
  4978     0A1A  0873               	movf	??__Umul8_16+1,w
  4979     0A1B  00F7               	movwf	__Umul8_16@word_mpld+1
  4980     0A1C                     i1l1853:
  4981     0A1C  1C78               	btfss	__Umul8_16@multiplier,0
  4982     0A1D  2A1F               	goto	u183_21
  4983     0A1E  2A20               	goto	u183_20
  4984     0A1F                     u183_21:
  4985     0A1F  2A26               	goto	i1l825
  4986     0A20                     u183_20:
  4987     0A20                     i1l1855:
  4988     0A20  0876               	movf	__Umul8_16@word_mpld,w
  4989     0A21  07F4               	addwf	__Umul8_16@product,f
  4990     0A22  1803               	skipnc
  4991     0A23  0AF5               	incf	__Umul8_16@product+1,f
  4992     0A24  0877               	movf	__Umul8_16@word_mpld+1,w
  4993     0A25  07F5               	addwf	__Umul8_16@product+1,f
  4994     0A26                     i1l825:
  4995     0A26  3001               	movlw	1
  4996     0A27                     u184_25:
  4997     0A27  1003               	clrc
  4998     0A28  0DF6               	rlf	__Umul8_16@word_mpld,f
  4999     0A29  0DF7               	rlf	__Umul8_16@word_mpld+1,f
  5000     0A2A  3EFF               	addlw	-1
  5001     0A2B  1D03               	skipz
  5002     0A2C  2A27               	goto	u184_25
  5003     0A2D  1003               	clrc
  5004     0A2E  0CF8               	rrf	__Umul8_16@multiplier,f
  5005     0A2F                     i1l1857:
  5006     0A2F  0878               	movf	__Umul8_16@multiplier,w
  5007     0A30  1D03               	btfss	3,2
  5008     0A31  2A33               	goto	u185_21
  5009     0A32  2A34               	goto	u185_20
  5010     0A33                     u185_21:
  5011     0A33  2A1C               	goto	i1l1853
  5012     0A34                     u185_20:
  5013     0A34                     i1l1859:
  5014     0A34  0875               	movf	__Umul8_16@product+1,w
  5015     0A35  00F1               	movwf	?__Umul8_16+1
  5016     0A36  0874               	movf	__Umul8_16@product,w
  5017     0A37  00F0               	movwf	?__Umul8_16
  5018     0A38                     i1l827:
  5019     0A38  0008               	return
  5020     0A39                     __end_of__Umul8_16:
  5021                           
  5022                           	psect	text14
  5023     05F2                     __ptext14:	
  5024 ;; *************** function ___fldiv *****************
  5025 ;; Defined at:
  5026 ;;		line 8 in file "C:\Program Files\Microchip\xc8\v2.45\pic\sources\c99\common\sprcdiv.c"
  5027 ;; Parameters:    Size  Location     Type
  5028 ;;  a               4    0[BANK0 ] unsigned int 
  5029 ;;  b               4    4[BANK0 ] unsigned int 
  5030 ;; Auto vars:     Size  Location     Type
  5031 ;;  grs             4   20[BANK0 ] unsigned long 
  5032 ;;  rem             4   13[BANK0 ] unsigned long 
  5033 ;;  new_exp         2   18[BANK0 ] short 
  5034 ;;  aexp            1   25[BANK0 ] unsigned char 
  5035 ;;  bexp            1   24[BANK0 ] unsigned char 
  5036 ;;  sign            1   17[BANK0 ] unsigned char 
  5037 ;; Return value:  Size  Location     Type
  5038 ;;                  4    0[BANK0 ] unsigned char 
  5039 ;; Registers used:
  5040 ;;		wreg, status,2, status,0, btemp+1
  5041 ;; Tracked objects:
  5042 ;;		On entry : 0/0
  5043 ;;		On exit  : 0/0
  5044 ;;		Unchanged: 0/0
  5045 ;; Data sizes:     COMMON   BANK0   BANK1   BANK3   BANK2
  5046 ;;      Params:         0       8       0       0       0
  5047 ;;      Locals:         0      13       0       0       0
  5048 ;;      Temps:          0       5       0       0       0
  5049 ;;      Totals:         0      26       0       0       0
  5050 ;;Total ram usage:       26 bytes
  5051 ;; Hardware stack levels used: 1
  5052 ;; This function calls:
  5053 ;;		Nothing
  5054 ;; This function is called by:
  5055 ;;		_InterrupT
  5056 ;; This function uses a non-reentrant model
  5057 ;;
  5058                           
  5059     05F2                     ___fldiv:	
  5060                           ;psect for function ___fldiv
  5061                           
  5062     05F2                     i1l2083:	
  5063                           ;incstack = 0
  5064                           ; Regs used in ___fldiv: [wreg+status,2+status,0+btemp+1]
  5065                           
  5066     05F2  1283               	bcf	3,5	;RP0=0, select bank0
  5067     05F3  1303               	bcf	3,6	;RP1=0, select bank0
  5068     05F4  0827               	movf	___fldiv@b+3,w
  5069     05F5  3980               	andlw	128
  5070     05F6  00B1               	movwf	___fldiv@sign
  5071     05F7                     i1l2085:
  5072     05F7  0827               	movf	___fldiv@b+3,w
  5073     05F8  00A8               	movwf	??___fldiv
  5074     05F9  0728               	addwf	??___fldiv,w
  5075     05FA  00B8               	movwf	___fldiv@bexp
  5076     05FB                     i1l2087:
  5077     05FB  1FA6               	btfss	___fldiv@b+2,7
  5078     05FC  2DFE               	goto	u224_21
  5079     05FD  2DFF               	goto	u224_20
  5080     05FE                     u224_21:
  5081     05FE  2E00               	goto	i1l2091
  5082     05FF                     u224_20:
  5083     05FF                     i1l2089:
  5084     05FF  1438               	bsf	___fldiv@bexp,0
  5085     0600                     i1l2091:
  5086     0600  0838               	movf	___fldiv@bexp,w
  5087     0601  1903               	btfsc	3,2
  5088     0602  2E04               	goto	u225_21
  5089     0603  2E05               	goto	u225_20
  5090     0604                     u225_21:
  5091     0604  2E15               	goto	i1l2101
  5092     0605                     u225_20:
  5093     0605                     i1l2093:
  5094     0605  0A38               	incf	___fldiv@bexp,w
  5095     0606  1D03               	btfss	3,2
  5096     0607  2E09               	goto	u226_21
  5097     0608  2E0A               	goto	u226_20
  5098     0609                     u226_21:
  5099     0609  2E12               	goto	i1l2097
  5100     060A                     u226_20:
  5101     060A                     i1l2095:
  5102     060A  3000               	movlw	0
  5103     060B  00A7               	movwf	___fldiv@b+3
  5104     060C  3000               	movlw	0
  5105     060D  00A6               	movwf	___fldiv@b+2
  5106     060E  3000               	movlw	0
  5107     060F  00A5               	movwf	___fldiv@b+1
  5108     0610  3000               	movlw	0
  5109     0611  00A4               	movwf	___fldiv@b
  5110     0612                     i1l2097:
  5111     0612  17A6               	bsf	___fldiv@b+2,7
  5112     0613                     i1l2099:
  5113     0613  01A7               	clrf	___fldiv@b+3
  5114     0614  2E1D               	goto	i1l2103
  5115     0615                     i1l2101:
  5116     0615  3000               	movlw	0
  5117     0616  00A7               	movwf	___fldiv@b+3
  5118     0617  3000               	movlw	0
  5119     0618  00A6               	movwf	___fldiv@b+2
  5120     0619  3000               	movlw	0
  5121     061A  00A5               	movwf	___fldiv@b+1
  5122     061B  3000               	movlw	0
  5123     061C  00A4               	movwf	___fldiv@b
  5124     061D                     i1l2103:
  5125     061D  0823               	movf	___fldiv@a+3,w
  5126     061E  3980               	andlw	128
  5127     061F  00FF               	movwf	btemp+1
  5128     0620  087F               	movf	btemp+1,w
  5129     0621  06B1               	xorwf	___fldiv@sign,f
  5130     0622                     i1l2105:
  5131     0622  0823               	movf	___fldiv@a+3,w
  5132     0623  00A8               	movwf	??___fldiv
  5133     0624  0728               	addwf	??___fldiv,w
  5134     0625  00B9               	movwf	___fldiv@aexp
  5135     0626                     i1l2107:
  5136     0626  1FA2               	btfss	___fldiv@a+2,7
  5137     0627  2E29               	goto	u227_21
  5138     0628  2E2A               	goto	u227_20
  5139     0629                     u227_21:
  5140     0629  2E2B               	goto	i1l2111
  5141     062A                     u227_20:
  5142     062A                     i1l2109:
  5143     062A  1439               	bsf	___fldiv@aexp,0
  5144     062B                     i1l2111:
  5145     062B  0839               	movf	___fldiv@aexp,w
  5146     062C  1903               	btfsc	3,2
  5147     062D  2E2F               	goto	u228_21
  5148     062E  2E30               	goto	u228_20
  5149     062F                     u228_21:
  5150     062F  2E40               	goto	i1l2121
  5151     0630                     u228_20:
  5152     0630                     i1l2113:
  5153     0630  0A39               	incf	___fldiv@aexp,w
  5154     0631  1D03               	btfss	3,2
  5155     0632  2E34               	goto	u229_21
  5156     0633  2E35               	goto	u229_20
  5157     0634                     u229_21:
  5158     0634  2E3D               	goto	i1l2117
  5159     0635                     u229_20:
  5160     0635                     i1l2115:
  5161     0635  3000               	movlw	0
  5162     0636  00A3               	movwf	___fldiv@a+3
  5163     0637  3000               	movlw	0
  5164     0638  00A2               	movwf	___fldiv@a+2
  5165     0639  3000               	movlw	0
  5166     063A  00A1               	movwf	___fldiv@a+1
  5167     063B  3000               	movlw	0
  5168     063C  00A0               	movwf	___fldiv@a
  5169     063D                     i1l2117:
  5170     063D  17A2               	bsf	___fldiv@a+2,7
  5171     063E                     i1l2119:
  5172     063E  01A3               	clrf	___fldiv@a+3
  5173     063F  2E48               	goto	i1l766
  5174     0640                     i1l2121:
  5175     0640  3000               	movlw	0
  5176     0641  00A3               	movwf	___fldiv@a+3
  5177     0642  3000               	movlw	0
  5178     0643  00A2               	movwf	___fldiv@a+2
  5179     0644  3000               	movlw	0
  5180     0645  00A1               	movwf	___fldiv@a+1
  5181     0646  3000               	movlw	0
  5182     0647  00A0               	movwf	___fldiv@a
  5183     0648                     i1l766:
  5184     0648  0823               	movf	___fldiv@a+3,w
  5185     0649  0422               	iorwf	___fldiv@a+2,w
  5186     064A  0421               	iorwf	___fldiv@a+1,w
  5187     064B  0420               	iorwf	___fldiv@a,w
  5188     064C  1D03               	skipz
  5189     064D  2E4F               	goto	u230_21
  5190     064E  2E50               	goto	u230_20
  5191     064F                     u230_21:
  5192     064F  2E69               	goto	i1l2131
  5193     0650                     u230_20:
  5194     0650                     i1l2123:
  5195     0650  3000               	movlw	0
  5196     0651  00A7               	movwf	___fldiv@b+3
  5197     0652  3000               	movlw	0
  5198     0653  00A6               	movwf	___fldiv@b+2
  5199     0654  3000               	movlw	0
  5200     0655  00A5               	movwf	___fldiv@b+1
  5201     0656  3000               	movlw	0
  5202     0657  00A4               	movwf	___fldiv@b
  5203     0658  3080               	movlw	128
  5204     0659  04A6               	iorwf	___fldiv@b+2,f
  5205     065A  307F               	movlw	127
  5206     065B  04A7               	iorwf	___fldiv@b+3,f
  5207     065C                     i1l2125:
  5208     065C  0831               	movf	___fldiv@sign,w
  5209     065D  00FF               	movwf	btemp+1
  5210     065E  087F               	movf	btemp+1,w
  5211     065F  04A7               	iorwf	___fldiv@b+3,f
  5212     0660                     i1l2127:
  5213     0660  0827               	movf	___fldiv@b+3,w
  5214     0661  00A3               	movwf	?___fldiv+3
  5215     0662  0826               	movf	___fldiv@b+2,w
  5216     0663  00A2               	movwf	?___fldiv+2
  5217     0664  0825               	movf	___fldiv@b+1,w
  5218     0665  00A1               	movwf	?___fldiv+1
  5219     0666  0824               	movf	___fldiv@b,w
  5220     0667  00A0               	movwf	?___fldiv
  5221     0668  2FC0               	goto	i1l768
  5222     0669                     i1l2131:
  5223     0669  0838               	movf	___fldiv@bexp,w
  5224     066A  1D03               	btfss	3,2
  5225     066B  2E6D               	goto	u231_21
  5226     066C  2E6E               	goto	u231_20
  5227     066D                     u231_21:
  5228     066D  2E77               	goto	i1l2137
  5229     066E                     u231_20:
  5230     066E                     i1l2133:
  5231     066E  3000               	movlw	0
  5232     066F  00A3               	movwf	?___fldiv+3
  5233     0670  3000               	movlw	0
  5234     0671  00A2               	movwf	?___fldiv+2
  5235     0672  3000               	movlw	0
  5236     0673  00A1               	movwf	?___fldiv+1
  5237     0674  3000               	movlw	0
  5238     0675  00A0               	movwf	?___fldiv
  5239     0676  2FC0               	goto	i1l768
  5240     0677                     i1l2137:
  5241     0677  0838               	movf	___fldiv@bexp,w
  5242     0678  00A8               	movwf	??___fldiv
  5243     0679  01A9               	clrf	??___fldiv+1
  5244     067A  0829               	movf	??___fldiv+1,w
  5245     067B  00AB               	movwf	??___fldiv+3
  5246     067C  0839               	movf	___fldiv@aexp,w
  5247     067D  0228               	subwf	??___fldiv,w
  5248     067E  00AA               	movwf	??___fldiv+2
  5249     067F  1C03               	skipc
  5250     0680  03AB               	decf	??___fldiv+3,f
  5251     0681  082A               	movf	??___fldiv+2,w
  5252     0682  3E7F               	addlw	127
  5253     0683  00B2               	movwf	___fldiv@new_exp
  5254     0684  082B               	movf	??___fldiv+3,w
  5255     0685  1803               	skipnc
  5256     0686  3E01               	addlw	1
  5257     0687  3E00               	addlw	0
  5258     0688  00B3               	movwf	___fldiv@new_exp+1
  5259     0689                     i1l2139:
  5260     0689  0827               	movf	___fldiv@b+3,w
  5261     068A  00B0               	movwf	___fldiv@rem+3
  5262     068B  0826               	movf	___fldiv@b+2,w
  5263     068C  00AF               	movwf	___fldiv@rem+2
  5264     068D  0825               	movf	___fldiv@b+1,w
  5265     068E  00AE               	movwf	___fldiv@rem+1
  5266     068F  0824               	movf	___fldiv@b,w
  5267     0690  00AD               	movwf	___fldiv@rem
  5268     0691                     i1l2141:
  5269     0691  3000               	movlw	0
  5270     0692  00A7               	movwf	___fldiv@b+3
  5271     0693  3000               	movlw	0
  5272     0694  00A6               	movwf	___fldiv@b+2
  5273     0695  3000               	movlw	0
  5274     0696  00A5               	movwf	___fldiv@b+1
  5275     0697  3000               	movlw	0
  5276     0698  00A4               	movwf	___fldiv@b
  5277     0699                     i1l2143:
  5278     0699  3000               	movlw	0
  5279     069A  00B7               	movwf	___fldiv@grs+3
  5280     069B  3000               	movlw	0
  5281     069C  00B6               	movwf	___fldiv@grs+2
  5282     069D  3000               	movlw	0
  5283     069E  00B5               	movwf	___fldiv@grs+1
  5284     069F  3000               	movlw	0
  5285     06A0  00B4               	movwf	___fldiv@grs
  5286     06A1                     i1l2145:
  5287     06A1  01B9               	clrf	___fldiv@aexp
  5288     06A2  2EED               	goto	i1l2165
  5289     06A3                     i1l2147:
  5290     06A3  0839               	movf	___fldiv@aexp,w
  5291     06A4  1903               	btfsc	3,2
  5292     06A5  2EA7               	goto	u232_21
  5293     06A6  2EA8               	goto	u232_20
  5294     06A7                     u232_21:
  5295     06A7  2EC8               	goto	i1l2157
  5296     06A8                     u232_20:
  5297     06A8                     i1l2149:
  5298     06A8  3001               	movlw	1
  5299     06A9  00A8               	movwf	??___fldiv
  5300     06AA                     u233_25:
  5301     06AA  1003               	clrc
  5302     06AB  0DAD               	rlf	___fldiv@rem,f
  5303     06AC  0DAE               	rlf	___fldiv@rem+1,f
  5304     06AD  0DAF               	rlf	___fldiv@rem+2,f
  5305     06AE  0DB0               	rlf	___fldiv@rem+3,f
  5306     06AF  0BA8               	decfsz	??___fldiv,f
  5307     06B0  2EAA               	goto	u233_25
  5308     06B1  3001               	movlw	1
  5309     06B2  00A8               	movwf	??___fldiv
  5310     06B3                     u234_25:
  5311     06B3  1003               	clrc
  5312     06B4  0DA4               	rlf	___fldiv@b,f
  5313     06B5  0DA5               	rlf	___fldiv@b+1,f
  5314     06B6  0DA6               	rlf	___fldiv@b+2,f
  5315     06B7  0DA7               	rlf	___fldiv@b+3,f
  5316     06B8  0BA8               	decfsz	??___fldiv,f
  5317     06B9  2EB3               	goto	u234_25
  5318     06BA                     i1l2151:
  5319     06BA  1FB7               	btfss	___fldiv@grs+3,7
  5320     06BB  2EBD               	goto	u235_21
  5321     06BC  2EBE               	goto	u235_20
  5322     06BD                     u235_21:
  5323     06BD  2EBF               	goto	i1l2155
  5324     06BE                     u235_20:
  5325     06BE                     i1l2153:
  5326     06BE  1424               	bsf	___fldiv@b,0
  5327     06BF                     i1l2155:
  5328     06BF  3001               	movlw	1
  5329     06C0  00A8               	movwf	??___fldiv
  5330     06C1                     u236_25:
  5331     06C1  1003               	clrc
  5332     06C2  0DB4               	rlf	___fldiv@grs,f
  5333     06C3  0DB5               	rlf	___fldiv@grs+1,f
  5334     06C4  0DB6               	rlf	___fldiv@grs+2,f
  5335     06C5  0DB7               	rlf	___fldiv@grs+3,f
  5336     06C6  0BA8               	decfsz	??___fldiv,f
  5337     06C7  2EC1               	goto	u236_25
  5338     06C8                     i1l2157:
  5339     06C8  0823               	movf	___fldiv@a+3,w
  5340     06C9  0230               	subwf	___fldiv@rem+3,w
  5341     06CA  1D03               	skipz
  5342     06CB  2ED6               	goto	u237_25
  5343     06CC  0822               	movf	___fldiv@a+2,w
  5344     06CD  022F               	subwf	___fldiv@rem+2,w
  5345     06CE  1D03               	skipz
  5346     06CF  2ED6               	goto	u237_25
  5347     06D0  0821               	movf	___fldiv@a+1,w
  5348     06D1  022E               	subwf	___fldiv@rem+1,w
  5349     06D2  1D03               	skipz
  5350     06D3  2ED6               	goto	u237_25
  5351     06D4  0820               	movf	___fldiv@a,w
  5352     06D5  022D               	subwf	___fldiv@rem,w
  5353     06D6                     u237_25:
  5354     06D6  1C03               	skipc
  5355     06D7  2ED9               	goto	u237_21
  5356     06D8  2EDA               	goto	u237_20
  5357     06D9                     u237_21:
  5358     06D9  2EE9               	goto	i1l2163
  5359     06DA                     u237_20:
  5360     06DA                     i1l2159:
  5361     06DA  1737               	bsf	___fldiv@grs+3,6
  5362     06DB                     i1l2161:
  5363     06DB  0820               	movf	___fldiv@a,w
  5364     06DC  02AD               	subwf	___fldiv@rem,f
  5365     06DD  0821               	movf	___fldiv@a+1,w
  5366     06DE  1C03               	skipc
  5367     06DF  0F21               	incfsz	___fldiv@a+1,w
  5368     06E0  02AE               	subwf	___fldiv@rem+1,f
  5369     06E1  0822               	movf	___fldiv@a+2,w
  5370     06E2  1C03               	skipc
  5371     06E3  0F22               	incfsz	___fldiv@a+2,w
  5372     06E4  02AF               	subwf	___fldiv@rem+2,f
  5373     06E5  0823               	movf	___fldiv@a+3,w
  5374     06E6  1C03               	skipc
  5375     06E7  0F23               	incfsz	___fldiv@a+3,w
  5376     06E8  02B0               	subwf	___fldiv@rem+3,f
  5377     06E9                     i1l2163:
  5378     06E9  3001               	movlw	1
  5379     06EA  00FF               	movwf	btemp+1
  5380     06EB  087F               	movf	btemp+1,w
  5381     06EC  07B9               	addwf	___fldiv@aexp,f
  5382     06ED                     i1l2165:
  5383     06ED  301A               	movlw	26
  5384     06EE  0239               	subwf	___fldiv@aexp,w
  5385     06EF  1C03               	skipc
  5386     06F0  2EF2               	goto	u238_21
  5387     06F1  2EF3               	goto	u238_20
  5388     06F2                     u238_21:
  5389     06F2  2EA3               	goto	i1l2147
  5390     06F3                     u238_20:
  5391     06F3                     i1l2167:
  5392     06F3  0830               	movf	___fldiv@rem+3,w
  5393     06F4  042F               	iorwf	___fldiv@rem+2,w
  5394     06F5  042E               	iorwf	___fldiv@rem+1,w
  5395     06F6  042D               	iorwf	___fldiv@rem,w
  5396     06F7  1903               	skipnz
  5397     06F8  2EFA               	goto	u239_21
  5398     06F9  2EFB               	goto	u239_20
  5399     06FA                     u239_21:
  5400     06FA  2F1A               	goto	i1l2181
  5401     06FB                     u239_20:
  5402     06FB                     i1l2169:
  5403     06FB  1434               	bsf	___fldiv@grs,0
  5404     06FC  2F1A               	goto	i1l2181
  5405     06FD                     i1l2171:
  5406     06FD  3001               	movlw	1
  5407     06FE  00A8               	movwf	??___fldiv
  5408     06FF                     u240_25:
  5409     06FF  1003               	clrc
  5410     0700  0DA4               	rlf	___fldiv@b,f
  5411     0701  0DA5               	rlf	___fldiv@b+1,f
  5412     0702  0DA6               	rlf	___fldiv@b+2,f
  5413     0703  0DA7               	rlf	___fldiv@b+3,f
  5414     0704  0BA8               	decfsz	??___fldiv,f
  5415     0705  2EFF               	goto	u240_25
  5416     0706                     i1l2173:
  5417     0706  1FB7               	btfss	___fldiv@grs+3,7
  5418     0707  2F09               	goto	u241_21
  5419     0708  2F0A               	goto	u241_20
  5420     0709                     u241_21:
  5421     0709  2F0B               	goto	i1l2177
  5422     070A                     u241_20:
  5423     070A                     i1l2175:
  5424     070A  1424               	bsf	___fldiv@b,0
  5425     070B                     i1l2177:
  5426     070B  3001               	movlw	1
  5427     070C  00A8               	movwf	??___fldiv
  5428     070D                     u242_25:
  5429     070D  1003               	clrc
  5430     070E  0DB4               	rlf	___fldiv@grs,f
  5431     070F  0DB5               	rlf	___fldiv@grs+1,f
  5432     0710  0DB6               	rlf	___fldiv@grs+2,f
  5433     0711  0DB7               	rlf	___fldiv@grs+3,f
  5434     0712  0BA8               	decfsz	??___fldiv,f
  5435     0713  2F0D               	goto	u242_25
  5436     0714                     i1l2179:
  5437     0714  30FF               	movlw	255
  5438     0715  07B2               	addwf	___fldiv@new_exp,f
  5439     0716  1803               	skipnc
  5440     0717  0AB3               	incf	___fldiv@new_exp+1,f
  5441     0718  30FF               	movlw	255
  5442     0719  07B3               	addwf	___fldiv@new_exp+1,f
  5443     071A                     i1l2181:
  5444     071A  1FA6               	btfss	___fldiv@b+2,7
  5445     071B  2F1D               	goto	u243_21
  5446     071C  2F1E               	goto	u243_20
  5447     071D                     u243_21:
  5448     071D  2EFD               	goto	i1l2171
  5449     071E                     u243_20:
  5450     071E                     i1l2183:
  5451     071E  01B9               	clrf	___fldiv@aexp
  5452     071F                     i1l2185:
  5453     071F  1FB7               	btfss	___fldiv@grs+3,7
  5454     0720  2F22               	goto	u244_21
  5455     0721  2F23               	goto	u244_20
  5456     0722                     u244_21:
  5457     0722  2F3F               	goto	i1l2193
  5458     0723                     u244_20:
  5459     0723                     i1l2187:
  5460     0723  30FF               	movlw	255
  5461     0724  0534               	andwf	___fldiv@grs,w
  5462     0725  00A8               	movwf	??___fldiv
  5463     0726  30FF               	movlw	255
  5464     0727  0535               	andwf	___fldiv@grs+1,w
  5465     0728  00A9               	movwf	??___fldiv+1
  5466     0729  30FF               	movlw	255
  5467     072A  0536               	andwf	___fldiv@grs+2,w
  5468     072B  00AA               	movwf	??___fldiv+2
  5469     072C  307F               	movlw	127
  5470     072D  0537               	andwf	___fldiv@grs+3,w
  5471     072E  00AB               	movwf	??___fldiv+3
  5472     072F  082B               	movf	??___fldiv+3,w
  5473     0730  042A               	iorwf	??___fldiv+2,w
  5474     0731  0429               	iorwf	??___fldiv+1,w
  5475     0732  0428               	iorwf	??___fldiv,w
  5476     0733  1903               	skipnz
  5477     0734  2F36               	goto	u245_21
  5478     0735  2F37               	goto	u245_20
  5479     0736                     u245_21:
  5480     0736  2F3A               	goto	i1l782
  5481     0737                     u245_20:
  5482     0737                     i1l2189:
  5483     0737  01B9               	clrf	___fldiv@aexp
  5484     0738  0AB9               	incf	___fldiv@aexp,f
  5485     0739  2F3F               	goto	i1l2193
  5486     073A                     i1l782:
  5487     073A  1C24               	btfss	___fldiv@b,0
  5488     073B  2F3D               	goto	u246_21
  5489     073C  2F3E               	goto	u246_20
  5490     073D                     u246_21:
  5491     073D  2F3F               	goto	i1l2193
  5492     073E                     u246_20:
  5493     073E  2F37               	goto	i1l2189
  5494     073F                     i1l2193:
  5495     073F  0839               	movf	___fldiv@aexp,w
  5496     0740  1903               	btfsc	3,2
  5497     0741  2F43               	goto	u247_21
  5498     0742  2F44               	goto	u247_20
  5499     0743                     u247_21:
  5500     0743  2F75               	goto	i1l2203
  5501     0744                     u247_20:
  5502     0744                     i1l2195:
  5503     0744  3001               	movlw	1
  5504     0745  07A4               	addwf	___fldiv@b,f
  5505     0746  3000               	movlw	0
  5506     0747  1803               	skipnc
  5507     0748  3001               	movlw	1
  5508     0749  07A5               	addwf	___fldiv@b+1,f
  5509     074A  3000               	movlw	0
  5510     074B  1803               	skipnc
  5511     074C  3001               	movlw	1
  5512     074D  07A6               	addwf	___fldiv@b+2,f
  5513     074E  3000               	movlw	0
  5514     074F  1803               	skipnc
  5515     0750  3001               	movlw	1
  5516     0751  07A7               	addwf	___fldiv@b+3,f
  5517     0752                     i1l2197:
  5518     0752  1C27               	btfss	___fldiv@b+3,0
  5519     0753  2F55               	goto	u248_21
  5520     0754  2F56               	goto	u248_20
  5521     0755                     u248_21:
  5522     0755  2F75               	goto	i1l2203
  5523     0756                     u248_20:
  5524     0756                     i1l2199:
  5525     0756  0824               	movf	___fldiv@b,w
  5526     0757  00A8               	movwf	??___fldiv
  5527     0758  0825               	movf	___fldiv@b+1,w
  5528     0759  00A9               	movwf	??___fldiv+1
  5529     075A  0826               	movf	___fldiv@b+2,w
  5530     075B  00AA               	movwf	??___fldiv+2
  5531     075C  0827               	movf	___fldiv@b+3,w
  5532     075D  00AB               	movwf	??___fldiv+3
  5533     075E  3001               	movlw	1
  5534     075F  00AC               	movwf	??___fldiv+4
  5535     0760                     u249_25:
  5536     0760  0D2B               	rlf	??___fldiv+3,w
  5537     0761  0CAB               	rrf	??___fldiv+3,f
  5538     0762  0CAA               	rrf	??___fldiv+2,f
  5539     0763  0CA9               	rrf	??___fldiv+1,f
  5540     0764  0CA8               	rrf	??___fldiv,f
  5541     0765                     u249_20:
  5542     0765  0BAC               	decfsz	??___fldiv+4,f
  5543     0766  2F60               	goto	u249_25
  5544     0767  082B               	movf	??___fldiv+3,w
  5545     0768  00A7               	movwf	___fldiv@b+3
  5546     0769  082A               	movf	??___fldiv+2,w
  5547     076A  00A6               	movwf	___fldiv@b+2
  5548     076B  0829               	movf	??___fldiv+1,w
  5549     076C  00A5               	movwf	___fldiv@b+1
  5550     076D  0828               	movf	??___fldiv,w
  5551     076E  00A4               	movwf	___fldiv@b
  5552     076F                     i1l2201:
  5553     076F  3001               	movlw	1
  5554     0770  07B2               	addwf	___fldiv@new_exp,f
  5555     0771  1803               	skipnc
  5556     0772  0AB3               	incf	___fldiv@new_exp+1,f
  5557     0773  3000               	movlw	0
  5558     0774  07B3               	addwf	___fldiv@new_exp+1,f
  5559     0775                     i1l2203:
  5560     0775  0833               	movf	___fldiv@new_exp+1,w
  5561     0776  3A80               	xorlw	128
  5562     0777  00FF               	movwf	btemp+1
  5563     0778  3080               	movlw	128
  5564     0779  027F               	subwf	btemp+1,w
  5565     077A  1D03               	skipz
  5566     077B  2F7E               	goto	u250_25
  5567     077C  30FF               	movlw	255
  5568     077D  0232               	subwf	___fldiv@new_exp,w
  5569     077E                     u250_25:
  5570     077E  1C03               	skipc
  5571     077F  2F81               	goto	u250_21
  5572     0780  2F82               	goto	u250_20
  5573     0781                     u250_21:
  5574     0781  2F90               	goto	i1l2207
  5575     0782                     u250_20:
  5576     0782                     i1l2205:
  5577     0782  30FF               	movlw	255
  5578     0783  1283               	bcf	3,5	;RP0=0, select bank0
  5579     0784  1303               	bcf	3,6	;RP1=0, select bank0
  5580     0785  00B2               	movwf	___fldiv@new_exp
  5581     0786  3000               	movlw	0
  5582     0787  00B3               	movwf	___fldiv@new_exp+1
  5583     0788  3000               	movlw	0
  5584     0789  00A7               	movwf	___fldiv@b+3
  5585     078A  3000               	movlw	0
  5586     078B  00A6               	movwf	___fldiv@b+2
  5587     078C  3000               	movlw	0
  5588     078D  00A5               	movwf	___fldiv@b+1
  5589     078E  3000               	movlw	0
  5590     078F  00A4               	movwf	___fldiv@b
  5591     0790                     i1l2207:
  5592     0790  1283               	bcf	3,5	;RP0=0, select bank0
  5593     0791  1303               	bcf	3,6	;RP1=0, select bank0
  5594     0792  0833               	movf	___fldiv@new_exp+1,w
  5595     0793  3A80               	xorlw	128
  5596     0794  00FF               	movwf	btemp+1
  5597     0795  3080               	movlw	128
  5598     0796  027F               	subwf	btemp+1,w
  5599     0797  1D03               	skipz
  5600     0798  2F9B               	goto	u251_25
  5601     0799  3001               	movlw	1
  5602     079A  0232               	subwf	___fldiv@new_exp,w
  5603     079B                     u251_25:
  5604     079B  1803               	skipnc
  5605     079C  2F9E               	goto	u251_21
  5606     079D  2F9F               	goto	u251_20
  5607     079E                     u251_21:
  5608     079E  2FAC               	goto	i1l788
  5609     079F                     u251_20:
  5610     079F                     i1l2209:
  5611     079F  1283               	bcf	3,5	;RP0=0, select bank0
  5612     07A0  1303               	bcf	3,6	;RP1=0, select bank0
  5613     07A1  01B2               	clrf	___fldiv@new_exp
  5614     07A2  01B3               	clrf	___fldiv@new_exp+1
  5615     07A3                     i1l2211:
  5616     07A3  3000               	movlw	0
  5617     07A4  00A7               	movwf	___fldiv@b+3
  5618     07A5  3000               	movlw	0
  5619     07A6  00A6               	movwf	___fldiv@b+2
  5620     07A7  3000               	movlw	0
  5621     07A8  00A5               	movwf	___fldiv@b+1
  5622     07A9  3000               	movlw	0
  5623     07AA  00A4               	movwf	___fldiv@b
  5624     07AB                     i1l2213:
  5625     07AB  01B1               	clrf	___fldiv@sign
  5626     07AC                     i1l788:
  5627     07AC  1283               	bcf	3,5	;RP0=0, select bank0
  5628     07AD  1303               	bcf	3,6	;RP1=0, select bank0
  5629     07AE  0832               	movf	___fldiv@new_exp,w
  5630     07AF  00B8               	movwf	___fldiv@bexp
  5631     07B0                     i1l2215:
  5632     07B0  1C38               	btfss	___fldiv@bexp,0
  5633     07B1  2FB3               	goto	u252_21
  5634     07B2  2FB4               	goto	u252_20
  5635     07B3                     u252_21:
  5636     07B3  2FB6               	goto	i1l2219
  5637     07B4                     u252_20:
  5638     07B4                     i1l2217:
  5639     07B4  17A6               	bsf	___fldiv@b+2,7
  5640     07B5  2FBA               	goto	i1l2221
  5641     07B6                     i1l2219:
  5642     07B6  307F               	movlw	127
  5643     07B7  00FF               	movwf	btemp+1
  5644     07B8  087F               	movf	btemp+1,w
  5645     07B9  05A6               	andwf	___fldiv@b+2,f
  5646     07BA                     i1l2221:
  5647     07BA  0838               	movf	___fldiv@bexp,w
  5648     07BB  00A8               	movwf	??___fldiv
  5649     07BC  1003               	clrc
  5650     07BD  0C28               	rrf	??___fldiv,w
  5651     07BE  00A7               	movwf	___fldiv@b+3
  5652     07BF  2E5C               	goto	i1l2125
  5653     07C0                     i1l768:
  5654     07C0  0008               	return
  5655     07C1                     __end_of___fldiv:
  5656                           
  5657                           	psect	text15
  5658     07C1                     __ptext15:	
  5659 ;; *************** function _ADC_Read *****************
  5660 ;; Defined at:
  5661 ;;		line 55 in file "main.c"
  5662 ;; Parameters:    Size  Location     Type
  5663 ;;  channel         1    wreg     unsigned char 
  5664 ;; Auto vars:     Size  Location     Type
  5665 ;;  channel         1    4[COMMON] unsigned char 
  5666 ;; Return value:  Size  Location     Type
  5667 ;;                  2    0[COMMON] unsigned int 
  5668 ;; Registers used:
  5669 ;;		wreg, status,2, status,0, btemp+1
  5670 ;; Tracked objects:
  5671 ;;		On entry : 0/0
  5672 ;;		On exit  : 0/0
  5673 ;;		Unchanged: 0/0
  5674 ;; Data sizes:     COMMON   BANK0   BANK1   BANK3   BANK2
  5675 ;;      Params:         2       0       0       0       0
  5676 ;;      Locals:         1       0       0       0       0
  5677 ;;      Temps:          2       0       0       0       0
  5678 ;;      Totals:         5       0       0       0       0
  5679 ;;Total ram usage:        5 bytes
  5680 ;; Hardware stack levels used: 1
  5681 ;; This function calls:
  5682 ;;		Nothing
  5683 ;; This function is called by:
  5684 ;;		_InterrupT
  5685 ;; This function uses a non-reentrant model
  5686 ;;
  5687                           
  5688     07C1                     _ADC_Read:	
  5689                           ;psect for function _ADC_Read
  5690                           
  5691                           
  5692                           ;incstack = 0
  5693                           ; Regs used in _ADC_Read: [wreg+status,2+status,0+btemp+1]
  5694                           ;ADC_Read@channel stored from wreg
  5695     07C1  00F4               	movwf	ADC_Read@channel
  5696     07C2                     i1l1863:
  5697                           
  5698                           ;main.c: 55: unsigned int ADC_Read(unsigned char channel);main.c: 57: {;main.c: 59:   AD
      +                          CON0 &= 0x11000101;
  5699     07C2  3001               	movlw	1
  5700     07C3  00FF               	movwf	btemp+1
  5701     07C4  087F               	movf	btemp+1,w
  5702     07C5  1283               	bcf	3,5	;RP0=0, select bank0
  5703     07C6  1303               	bcf	3,6	;RP1=0, select bank0
  5704     07C7  059F               	andwf	31,f	;volatile
  5705                           
  5706                           ;main.c: 60:   ADCON0 |= channel<<3;
  5707     07C8  0874               	movf	ADC_Read@channel,w	;volatile
  5708     07C9  00F2               	movwf	??_ADC_Read
  5709     07CA  3002               	movlw	2
  5710     07CB                     u186_25:
  5711     07CB  1003               	clrc
  5712     07CC  0DF2               	rlf	??_ADC_Read,f
  5713     07CD  3EFF               	addlw	-1
  5714     07CE  1D03               	skipz
  5715     07CF  2FCB               	goto	u186_25
  5716     07D0  1003               	clrc
  5717     07D1  0D72               	rlf	??_ADC_Read,w
  5718     07D2  00FF               	movwf	btemp+1
  5719     07D3  087F               	movf	btemp+1,w
  5720     07D4  049F               	iorwf	31,f	;volatile
  5721     07D5                     i1l1865:
  5722                           
  5723                           ;main.c: 61:   _delay((unsigned long)((2)*(8000000/4000.0)));
  5724     07D5  3006               	movlw	6
  5725     07D6  00F3               	movwf	??_ADC_Read+1
  5726     07D7  3030               	movlw	48
  5727     07D8  00F2               	movwf	??_ADC_Read
  5728     07D9                     u332_27:
  5729     07D9  0BF2               	decfsz	??_ADC_Read,f
  5730     07DA  2FD9               	goto	u332_27
  5731     07DB  0BF3               	decfsz	??_ADC_Read+1,f
  5732     07DC  2FD9               	goto	u332_27
  5733     07DD  0000               	nop
  5734     07DE                     i1l1867:
  5735                           
  5736                           ;main.c: 62:   GO_nDONE = 1;
  5737     07DE  1283               	bcf	3,5	;RP0=0, select bank0
  5738     07DF  1303               	bcf	3,6	;RP1=0, select bank0
  5739     07E0  151F               	bsf	31,2	;volatile
  5740     07E1                     i1l67:	
  5741                           ;main.c: 63:   while(GO_nDONE);
  5742                           
  5743     07E1  191F               	btfsc	31,2	;volatile
  5744     07E2  2FE4               	goto	u187_21
  5745     07E3  2FE5               	goto	u187_20
  5746     07E4                     u187_21:
  5747     07E4  2FE1               	goto	i1l67
  5748     07E5                     u187_20:
  5749     07E5                     i1l1869:
  5750                           
  5751                           ;main.c: 64:   return ((ADRESH<<8)+ADRESL);
  5752     07E5  081E               	movf	30,w	;volatile
  5753     07E6  00F1               	movwf	?_ADC_Read+1
  5754     07E7  1683               	bsf	3,5	;RP0=1, select bank1
  5755     07E8  1303               	bcf	3,6	;RP1=0, select bank1
  5756     07E9  081E               	movf	30,w	;volatile
  5757     07EA  00F0               	movwf	?_ADC_Read
  5758     07EB                     i1l70:
  5759     07EB  0008               	return
  5760     07EC                     __end_of_ADC_Read:
  5761     007E                     btemp	set	126	;btemp
  5762     007E                     wtemp0	set	126
  5763                           
  5764                           	psect	config
  5765                           
  5766                           ;Config register CONFIG @ 0x2007
  5767                           ;	Oscillator Selection bits
  5768                           ;	FOSC = XT, XT oscillator
  5769                           ;	Watchdog Timer Enable bit
  5770                           ;	WDTE = OFF, WDT disabled
  5771                           ;	Power-up Timer Enable bit
  5772                           ;	PWRTE = OFF, PWRT disabled
  5773                           ;	Brown-out Reset Enable bit
  5774                           ;	BOREN = OFF, BOR disabled
  5775                           ;	Low-Voltage (Single-Supply) In-Circuit Serial Programming Enable bit
  5776                           ;	LVP = OFF, RB3 is digital I/O, HV on MCLR must be used for programming
  5777                           ;	Data EEPROM Memory Code Protection bit
  5778                           ;	CPD = OFF, Data EEPROM code protection off
  5779                           ;	Flash Program Memory Write Enable bits
  5780                           ;	WRT = OFF, Write protection off; all program memory may be written to by EECON control
  5781                           ;	In-Circuit Debugger Mode bit
  5782                           ;	DEBUG = 0x1, unprogrammed default
  5783                           ;	Flash Program Memory Code Protection bit
  5784                           ;	CP = OFF, Code protection off
  5785     2007                     	org	8199
  5786     2007  3F39               	dw	16185

Data Sizes:
    Strings     34
    Constant    0
    Data        11
    BSS         12
    Persistent  0
    Stack       0

Auto Spaces:
    Space          Size  Autos    Used
    COMMON           14     14      14
    BANK0            80     66      74
    BANK1            80     19      34
    BANK3            96      0       0
    BANK2            96      0       0

Pointer List with Targets:

    display$PORT	PTR volatile unsigned char  size(2) Largest target is 1
		 -> PORTC(SFR0[1]), 

    lcd$PORT	PTR volatile unsigned char  size(2) Largest target is 1
		 -> PORTC(SFR0[1]), 

    LCD_putrs@a	PTR const unsigned char  size(1) Largest target is 12
		 -> STR_1(CODE[12]), STR_2(CODE[12]), STR_3(CODE[10]), 

    S22$PORT	PTR volatile unsigned char  size(2) Largest target is 1
		 -> PORTC(SFR0[1]), 


Critical Paths under _main in COMMON

    None.

Critical Paths under _InterrupT in COMMON

    _InterrupT->___xxtofl
    ___fltol->___xxtofl
    ___flmul->___xxtofl
    ___fldiv->___xxtofl

Critical Paths under _main in BANK0

    None.

Critical Paths under _InterrupT in BANK0

    _InterrupT->___fltol
    ___fltol->___flmul
    ___flmul->___fldiv

Critical Paths under _main in BANK1

    _main->_LCD_Init
    _main->___awmod
    ___awmod->___awdiv
    _LCD_putrs->_LCD_putc
    _LCD_putc->_LCD_Out
    _LCD_Init->_LCD_Write
    _LCD_Write->_LCD_Out

Critical Paths under _InterrupT in BANK1

    None.

Critical Paths under _main in BANK3

    None.

Critical Paths under _InterrupT in BANK3

    None.

Critical Paths under _main in BANK2

    None.

Critical Paths under _InterrupT in BANK2

    None.

Call Graph Tables:

 ---------------------------------------------------------------------------------
 (Depth) Function   	        Calls       Base Space   Used Autos Params    Refs
 ---------------------------------------------------------------------------------
 (0) _main                                                 5     5      0    2423
                                             14 BANK1      5     5      0
                           _ADC_Init
                           _LCD_Init
                          _LCD_Write
                           _LCD_putc
                          _LCD_putrs
                            ___awdiv
                            ___awmod
 ---------------------------------------------------------------------------------
 (1) ___awmod                                              6     2      4     904
                                              8 BANK1      6     2      4
                            ___awdiv (ARG)
 ---------------------------------------------------------------------------------
 (1) ___awdiv                                              8     4      4     604
                                              0 BANK1      8     4      4
 ---------------------------------------------------------------------------------
 (1) _LCD_putrs                                            3     3      0     321
                                              6 BANK1      3     3      0
                           _LCD_putc
 ---------------------------------------------------------------------------------
 (2) _LCD_putc                                             3     3      0     132
                                              3 BANK1      3     3      0
                            _LCD_Out
 ---------------------------------------------------------------------------------
 (1) _LCD_Init                                             8     3      5     256
                                              6 BANK1      8     3      5
                          _LCD_Write
 ---------------------------------------------------------------------------------
 (1) _LCD_Write                                            3     3      0     110
                                              3 BANK1      3     3      0
                            _LCD_Out
 ---------------------------------------------------------------------------------
 (3) _LCD_Out                                              3     3      0      88
                                              0 BANK1      3     3      0
 ---------------------------------------------------------------------------------
 (1) _ADC_Init                                             0     0      0       0
 ---------------------------------------------------------------------------------
 Estimated maximum stack depth 3
 ---------------------------------------------------------------------------------
 (Depth) Function   	        Calls       Base Space   Used Autos Params    Refs
 ---------------------------------------------------------------------------------
 (4) _InterrupT                                            4     4      0    4415
                                             62 BANK0      4     4      0
                           _ADC_Read
                            ___fldiv
                            ___flmul
                            ___fltol
                           ___xxtofl
 ---------------------------------------------------------------------------------
 (5) ___xxtofl                                            14    10      4     398
                                              0 COMMON    14    10      4
 ---------------------------------------------------------------------------------
 (5) ___fltol                                             10     6      4     305
                                             52 BANK0     10     6      4
                            ___fldiv (ARG)
                            ___flmul (ARG)
                           ___xxtofl (ARG)
 ---------------------------------------------------------------------------------
 (5) ___flmul                                             26    18      8    2417
                                             26 BANK0     26    18      8
                          __Umul8_16
                            ___fldiv (ARG)
                           ___xxtofl (ARG)
 ---------------------------------------------------------------------------------
 (6) __Umul8_16                                            9     7      2     799
                                              0 COMMON     9     7      2
 ---------------------------------------------------------------------------------
 (5) ___fldiv                                             26    18      8    1273
                                              0 BANK0     26    18      8
                           ___xxtofl (ARG)
 ---------------------------------------------------------------------------------
 (5) _ADC_Read                                             5     3      2      22
                                              0 COMMON     5     3      2
 ---------------------------------------------------------------------------------
 Estimated maximum stack depth 6
 ---------------------------------------------------------------------------------

 Call Graph Graphs:

 _main (ROOT)
   _ADC_Init
   _LCD_Init
     _LCD_Write
       _LCD_Out
   _LCD_Write
   _LCD_putc
     _LCD_Out
   _LCD_putrs
     _LCD_putc
   ___awdiv
   ___awmod
     ___awdiv (ARG)

 _InterrupT (ROOT)
   _ADC_Read
   ___fldiv
     ___xxtofl (ARG)
   ___flmul
     __Umul8_16
     ___fldiv (ARG)
     ___xxtofl (ARG)
   ___fltol
     ___fldiv (ARG)
     ___flmul (ARG)
     ___xxtofl (ARG)
   ___xxtofl

 Address spaces:
Name               Size   Autos  Total    Cost      Usage
BANK3               60      0       0       9        0.0%
BITBANK3            60      0       0       8        0.0%
SFR3                 0      0       0       4        0.0%
BITSFR3              0      0       0       4        0.0%
BANK2               60      0       0      11        0.0%
BITBANK2            60      0       0      10        0.0%
SFR2                 0      0       0       5        0.0%
BITSFR2              0      0       0       5        0.0%
BANK1               50     13      22       7       42.5%
BITBANK1            50      0       0       6        0.0%
SFR1                 0      0       0       2        0.0%
BITSFR1              0      0       0       2        0.0%
BANK0               50     42      4A       5       92.5%
BITBANK0            50      0       0       4        0.0%
SFR0                 0      0       0       1        0.0%
BITSFR0              0      0       0       1        0.0%
COMMON               E      E       E       1      100.0%
BITCOMMON            E      0       0       0        0.0%
CODE                 0      0       0       0        0.0%
DATA                 0      0      7A      12        0.0%
ABS                  0      0      7A       3        0.0%
NULL                 0      0       0       0        0.0%
STACK                0      0       0       2        0.0%
EEDATA             100      0       0       0        0.0%


Microchip Technology PIC Macro Assembler V2.45 build 20230818022343 
Symbol Table                                                                                   Mon Dec 04 15:59:17 2023

           ___fldiv@aexp 0039             ___fldiv@bexp 0038                        pc 0002  
           ___fldiv@sign 0031                       l73 0A11             ___awdiv@sign 00A5  
                     fsr 0004      __Umul8_16@word_mpld 0076                      l112 03C3  
                    l211 059C                      l311 0C9C                      l208 0594  
                    l225 05A8                      l129 03D5                      l307 0E0E  
                    l323 0A61                      l148 0401                      l191 0580  
                    l282 0B19                      l194 0588                      l279 0EE2  
                    l295 0E1A                      l562 0B82                      l575 0ABC  
        LCD_Init@display 00A6                      _lcd 00B3                      fsr0 0004  
                    indf 0000             ___awmod@sign 00AD              main@cmd_320 00B2  
           ___flmul@aexp 004C             ___flmul@bexp 004D             ___flmul@sign 0047  
           ___flmul@temp 0052             ___flmul@prod 004E          __end_of_LCD_Out 0EE3  
           ___fltol@exp1 005D                     l2001 0B79                     l2003 0B7E  
                   l2011 0A69                     l2021 0A7F                     l2013 0A6E  
                   l2031 0A9B                     l2023 0A82                     l2015 0A70  
                   l2007 0A62                     l2041 0AB8                     l2033 0AA1  
                   l2025 0A89                     l2017 0A74                     l2009 0A65  
                   l2035 0AA8                     l2027 0A8D                     l2019 0A79  
                   l2029 0A91                     l2037 0AAE                     l2039 0AB3  
                   l2501 03B7                     l2503 03BD                     l1801 0E22  
                   l2601 052F                     l2521 03E9                     l2513 03C9  
                   l1811 0E80                     l1803 0E37                     l2603 055A  
                   l2523 03EF                     l1821 0ECA                     l1813 0E84  
                   l1805 0E4C                     l1901 0D55                     l2605 0574  
                   l2541 042F                     l2525 03F5                     l1815 0E99  
                   l1807 0E50                     l1831 0AFF                     l1823 0AC0  
                   l1911 0D80                     l1903 0D68                     l2631 05B8  
                   l2607 057A                     l2551 0448                     l2543 0434  
                   l2535 0407                     l2527 03FB                     l2519 03DB  
                   l1817 0EAE                     l1809 0E68                     l1825 0AD5  
                   l1921 0DA2                     l1913 0D8A                     l1905 0D72  
                   l1841 0C41                     l1833 0BFE                     l2633 05B9  
                   l2641 05D4                     l2553 044D                     l2545 0439  
                   l2537 040F                     l2481 0389                     l1819 0EB2  
                   l1827 0ADB                     l1931 0DCD                     l1915 0D8C  
                   l1923 0DA3                     l1907 0D74                     l1843 0C5B  
                   l1835 0C12                     l2635 05BA                     l2627 05AE  
                   l2571 04BB                     l2731 0466                     l2555 0452  
                   l2547 043E                     l2563 0461                     l2539 0413  
                   l2491 0398                     l2483 038D                     l1829 0AF4  
                   l1941 0DEB                     l1933 0DD3                     l1925 0DAD  
                   l1917 0D96                     l1909 0D7E                     l1845 0C62  
                   l1837 0C21                     l2637 05BB                     l2629 05B6  
                   l2733 04E8                     l2581 04D4                     l2573 04C0  
                   l2557 0457                     l2549 0443                     l2565 0486  
                   l2493 039B                     l2485 0392                     l1951 0DF6  
                   l1943 0DF1                     l1935 0DD9                     l1927 0DB3  
                   l1919 0D98                     l1847 0C82                     l1839 0C3A  
                   l2639 05CA                     l2583 04D9                     l2575 04C5  
                   l2567 04B1                     l2559 045C                     l2591 0508  
                   l2495 039C                     l2487 0396                     l2479 0386  
                   l1881 0A05                     l1873 09FC                     l1945 0DF5  
                   l1937 0DDF                     l1929 0DC3                     l1961 0A54  
                   l2649 05D6                     l2593 050C                     l2585 04DE  
                   l2577 04CA                     l2569 04B6                     l2497 039D  
                   l2489 0397                     l1891 0A0C                     l1883 0A06  
                   l1875 0A02                     l1939 0DE5                     l1955 0A3C  
                   l1971 0B28                     l1963 0B1A                     l2595 050D  
                   l2579 04CF                     l2499 03A1                     l1893 0A0D  
                   l1885 0A07                     l1877 0A03                     l1957 0A3F  
                   l1981 0B3D                     l1973 0B2C                     l1965 0B1D  
                   l2597 0523                     l2589 04E3                     l1895 0A0E  
                   l1887 0A08                     l1879 0A04                     l1799 0E1E  
                   l1959 0A4C                     l1991 0B60                     l1983 0B40  
                   l1975 0B31                     l1967 0B21                     l2599 0524  
                   l1897 0A0F                     l1889 0A09                     l1993 0B66  
                   l1985 0B47                     l1977 0B35                     l1969 0B26  
                   l1899 0A10                     l1995 0B67                     l1987 0B4B  
                   l1979 0B37                     l1997 0B6E                     l1989 0B4F  
                   l1999 0B74                     STR_1 0812                     STR_2 0806  
                   STR_3 081E                     u2010 0B60                     u2011 0B5F  
                   u2100 0A9B                     u2005 0B50                     u2101 0A9A  
                   u2030 0B74                     u2031 0B73                     u2015 0B5C  
                   u2040 0B79                     u2120 0AAE                     u2041 0B78  
                   u2025 0B68                     u2121 0AAD                     u2105 0A97  
                   u2130 0AB3                     u2050 0A69                     u2131 0AB2  
                   u2115 0AA2                     u2051 0A68                     u2060 0A74  
                   u2061 0A73                     u2070 0A7F                     u2071 0A7E  
                   u2090 0A91                     u2091 0A90                     u1620 0E22  
                   u1621 0E21                     u2085 0A83                     u3205 05BE  
                   u1710 0EB2                     u1711 0EB1                     u3215 05D9  
                   u1704 0EA1                     u1705 0E9F                     u1650 0E50  
                   u1634 0E2A                     u1651 0E4F                     u1635 0E28  
                   u3307 0DC9                     u1724 0EBD                     u1644 0E3F  
                   u1900 0D8A                     u1804 0C4E                     u3180 040F  
                   u1725 0EBB                     u1645 0E3D                     u3317 0AFA  
                   u1901 0D89                     u1805 0C4C                     u3181 040E  
                   u3237 03E3                     u1734 0ED5                     u1910 0D96  
                   u1814 0C6F                     u3190 05B6                     u1735 0ED3  
                   u1911 0D95                     u1815 0C6D                     u3191 05B5  
                   u3247 0516                     u1680 0E84                     u1664 0E5B  
                   u1744 0AC8                     u1920 0DA2                     u1824 0C8F  
                   u1681 0E83                     u1665 0E59                     u1745 0AC6  
                   u1921 0DA1                     u1905 0D86                     u1825 0C8D  
                   u3257 052B                     u1674 0E73                     u1754 0AE8  
                   u1675 0E71                     u1755 0AE6                     u1915 0D92  
                   u3267 0C3E                     u1764 0B0C                     u1940 0A61  
                   u1765 0B0A                     u1925 0D9E                     u3277 0C7F  
                   u1941 0A60                     u1694 0E8C                     u1774 0C06  
                   u1950 0B21                     u1695 0E8A                     u1935 0DF9  
                   u3287 0DA9                     u1775 0C04                     u1951 0B20  
                   u1880 0D72                     u1960 0B2C                     u3297 0DB9  
                   u1881 0D71                     u1785 0C15                     u1961 0B2B  
                   u1890 0D7E                     u1794 0C2E                     u1970 0B3D  
                   u1891 0D7D                     u1795 0C2C                     u1971 0B3C  
                   u1885 0D6E                     u1990 0B4F                     u1895 0D7A  
                   u1991 0B4E                     u1985 0B41                     i1l70 07EB  
                   i1l67 07E1                     i1l91 0FF6                     _cset 00BC  
                   _main 0386                     btemp 007E         __end_of_ADC_Init 0A12  
       __end_of_ADC_Read 07EC                     start 0010          ___fldiv@new_exp 0032  
            LCD_Init@cmd 00AD         __end_of_LCD_Init 0E1B         __end_of_LCD_putc 0C9D  
          ___fltol@sign1 005C                    ?_main 0070          __end_of___fldiv 07C1  
        __end_of___awdiv 0B83          __end_of___awmod 0ABD          __end_of___flmul 0386  
        __end_of___fltol 0BFB          ___awdiv@divisor 00A0                    i1l610 0BE5  
                  i1l603 0BFA                    i1l613 0BFA                    i1l812 02F5  
                  i1l806 0385                    i1l825 0A26                    i1l850 0CBF  
                  i1l827 0A38                    i1l852 0D54                    i1l782 073A  
                  i1l766 0648                    i1l863 0D1E                    i1l768 07C0  
                  i1l864 0D2A                    i1l788 07AC          ___awdiv@counter 00A4  
                  _PORTA 0005                    _PORTB 0006                    _PORTC 0007  
                  _PORTD 0008                    _PORTE 0009                    _TRISA 0085  
                  _TRISB 0086                    _TRISC 0087                    _TRISD 0088  
                  _TRISE 0089                    pclath 000A                    status 0003  
                  wtemp0 007E          __initialization 0013             __end_of_main 05F2  
                 ??_main 00AE                ??_LCD_Out 00A0        __end_of_LCD_Write 0B1A  
      __end_of_LCD_putrs 0A62                   _ADCON0 001F                   _ADRESH 001E  
                 _ADRESL 009E         ___awdiv@dividend 00A2                   i1l2101 0615  
                 i1l2111 062B                   i1l2103 061D                   i1l2201 076F  
                 i1l2113 0630                   i1l2121 0640                   i1l2105 0622  
                 i1l2211 07A3                   i1l2203 0775                   i1l2123 0650  
                 i1l2131 0669                   i1l2115 0635                   i1l2107 0626  
                 i1l2051 0B97                   i1l2221 07BA                   i1l2213 07AB  
                 i1l2205 0782                   i1l2141 0691                   i1l2133 066E  
                 i1l2125 065C                   i1l2117 063D                   i1l2109 062A  
                 i1l2301 01EF                   i1l2061 0BB9                   i1l2053 0BAA  
                 i1l2045 0B83                   i1l2215 07B0                   i1l2207 0790  
                 i1l2151 06BA                   i1l2143 0699                   i1l2127 0660  
                 i1l2119 063E                   i1l2311 02A1                   i1l2303 021A  
                 i1l2231 0046                   i1l2071 0BD3                   i1l2055 0BAB  
                 i1l2047 0B8E                   i1l2217 07B4                   i1l2209 079F  
                 i1l2161 06DB                   i1l2153 06BE                   i1l2145 06A1  
                 i1l2137 0677                   i1l2321 02C6                   i1l2313 02AA  
                 i1l2305 0228                   i1l2241 0059                   i1l2233 004A  
                 i1l2081 0BEF                   i1l2057 0BB3                   i1l2401 0D14  
                 i1l2219 07B6                   i1l2171 06FD                   i1l2163 06E9  
                 i1l2155 06BF                   i1l2147 06A3                   i1l2139 0689  
                 i1l2091 0600                   i1l2083 05F2                   i1l2331 02DE  
                 i1l2323 02CF                   i1l2315 02B8                   i1l2307 0253  
                 i1l2251 0074                   i1l2243 0061                   i1l2235 004E  
                 i1l2067 0BC1                   i1l2059 0BB5                   i1l2411 0D47  
                 i1l2403 0D18                   i1l2173 0706                   i1l2181 071A  
                 i1l2149 06A8                   i1l2157 06C8                   i1l2165 06ED  
                 i1l2093 0605                   i1l2085 05F7                   i1l2341 030D  
                 i1l2333 02F2                   i1l2317 02C1                   i1l2325 02D5  
                 i1l2309 0279                   i1l2261 008B                   i1l2253 0078  
                 i1l2245 0063                   i1l2237 004F                   i1l2229 0041  
                 i1l2077 0BDA                   i1l2069 0BCA                   i1l2413 0D4B  
                 i1l2405 0D22                   i1l2421 0EE7                   i1l2183 071E  
                 i1l2175 070A                   i1l2167 06F3                   i1l2159 06DA  
                 i1l2095 060A                   i1l2087 05FB                   i1l2351 0348  
                 i1l2343 0311                   i1l2327 02D9                   i1l2319 02C5  
                 i1l2263 008D                   i1l2255 0079                   i1l2247 006B  
                 i1l2239 0054                   i1l2079 0BEA                   i1l2415 0D4C  
                 i1l2407 0D2C                   i1l2431 0F04                   i1l2423 0EED  
                 i1l2193 073F                   i1l2185 071F                   i1l2177 070B  
                 i1l2169 06FB                   i1l2097 0612                   i1l2089 05FF  
                 i1l2361 0373                   i1l2353 0357                   i1l2345 032A  
                 i1l2337 02FA                   i1l2329 02DA                   i1l2281 00FA  
                 i1l2273 00A8                   i1l2265 0095                   i1l2257 007E  
                 i1l2249 0070                   i1l2409 0D42                   i1l2433 0F09  
                 i1l2441 0F22                   i1l2425 0EF3                   i1l2195 0744  
                 i1l2187 0723                   i1l2179 0714                   i1l2099 0613  
                 i1l2363 0374                   i1l2355 0361                   i1l2339 02FF  
                 i1l2347 0330                   i1l2291 0173                   i1l2283 0124  
                 i1l2275 00B6                   i1l2267 009A                   i1l2259 0083  
                 i1l2371 0C9E                   i1l2451 0F46                   i1l2443 0F27  
                 i1l2435 0F0F                   i1l2427 0EFA                   i1l2419 0EE3  
                 i1l2197 0752                   i1l2189 0737                   i1l2357 0363  
                 i1l2365 0379                   i1l2349 033D                   i1l2293 0190  
                 i1l2285 0140                   i1l2277 00C3                   i1l2269 009F  
                 i1l2373 0CA3                   i1l2461 0F61                   i1l2445 0F2D  
                 i1l2437 0F18                   i1l2429 0F00                   i1l2453 0F47  
                 i1l2199 0756                   i1l2367 037D                   i1l2359 036F  
                 i1l2295 019E                   i1l2287 015C                   i1l2279 00DE  
                 i1l2391 0CE7                   i1l2383 0CD0                   i1l2375 0CA7  
                 i1l2471 0FE1                   i1l2463 0F6D                   i1l2455 0F4B  
                 i1l2447 0F3C                   i1l2439 0F1E                   i1l2297 01BB  
                 i1l2289 0165                   i1l2393 0CEB                   i1l2385 0CD3  
                 i1l2377 0CB7                   i1l2465 0FBF                   i1l2473 0FE4  
                 i1l2457 0F58                   i1l2449 0F40                   i1l1851 0A15  
                 i1l2299 01D2                   i1l2395 0CF9                   i1l2387 0CD7  
                 i1l2379 0CC7                   i1l2475 0FEF                   i1l2467 0FCD  
                 i1l2459 0F5F                   i1l1853 0A1C                   i1l2397 0D02  
                 i1l2389 0CE0                   i1l2477 0FF5                   i1l2469 0FD1  
                 i1l1863 07C2                   i1l1855 0A20                   i1l2399 0D09  
                 i1l1865 07D5                   i1l1857 0A2F                   i1l1849 0A13  
                 i1l1867 07DE                   i1l1859 0A34                   i1l1869 07E5  
                 u220_20 0BD9                   u300_20 0D22                   u220_21 0BD8  
                 u300_21 0D21                   u301_20 0D37                   u221_25 0BDC  
                 u301_25 0D32                   u230_20 0650                   u222_20 0BEA  
                 u214_20 0B8E                   u302_20 0D47                   u310_20 0F39  
                 u230_21 064F                   u222_21 0BE9                   u214_21 0B8D  
                 u302_21 0D46                   u310_21 0F35                   u231_20 066E  
                 u223_20 0BEF                   u215_20 0BA5                   u303_20 0D4B  
                 u231_21 066D                   u223_21 0BEE                   u303_21 0D4A  
                 u311_24 0F3C                   u215_25 0BA0                   u232_20 06A8  
                 u224_20 05FF                   u216_20 0BB9                   u312_20 0F40  
                 u304_20 0EE7                   u232_21 06A7                   u224_21 05FE  
                 u216_21 0BB8                   u312_21 0F3F                   u304_21 0EE6  
                 u240_25 06FF                   u241_20 070A                   u225_20 0605  
                 u217_20 0BC0                   u313_20 0F4B                   u305_20 0EF3  
                 u241_21 0709                   u225_21 0604                   u217_21 0BBF  
                 u313_21 0F4A                   u305_21 0EF2                   u233_25 06AA  
                 u250_20 0782                   u226_20 060A                   u314_20 0F5F  
                 u306_20 0EFA                   u250_21 0781                   u226_21 0609  
                 u314_21 0F5E                   u306_21 0EF9                   u250_25 077E  
                 u242_25 070D                   u234_25 06B3                   u218_25 0BC2  
                 u251_20 079F                   u243_20 071E                   u235_20 06BE  
                 u227_20 062A                   u219_20 0BD2                   u315_20 0FCD  
                 u307_20 0F09                   u251_21 079E                   u243_21 071D  
                 u235_21 06BD                   u227_21 0629                   u219_21 0BD1  
                 u315_21 0FCC                   u307_21 0F08                   u251_25 079B  
                 u315_25 0FC9                   u252_20 07B4                   u244_20 0723  
                 u228_20 0630                   u260_20 009F                   u316_20 0FE1  
                 u308_20 0F18                   u252_21 07B3                   u244_21 0722  
                 u228_21 062F                   u260_21 009E                   u316_21 0FE0  
                 u308_21 0F17                   u236_25 06C1                   u316_25 0FDD  
                 u332_27 07D9                   u245_20 0737                   u237_20 06DA  
                 u229_20 0635                   u253_20 004E                   u317_20 0FEF  
                 u309_20 0F27                   u245_21 0736                   u237_21 06D9  
                 u229_21 0634                   u261_21 00EC                   u253_21 004D  
                 u317_21 0FEE                   u309_21 0F26                   u261_22 00F3  
                 u261_23 00FA                   u237_25 06D6                   u246_20 073E  
                 u238_20 06F3                   u254_20 0054                   u246_21 073D  
                 u238_21 06F2                   u270_21 020C                   u262_21 0108  
                 u254_21 0053                   u270_22 0213                   u262_22 010F  
                 u270_23 021A                   u262_23 0116                   u247_20 0744  
                 u239_20 06FB                   u183_20 0A20                   u255_20 0059  
                 u247_21 0743                   u239_21 06FA                   u183_21 0A1F  
                 u271_21 0237                   u263_21 0132                   u255_21 0058  
                 u271_22 023E                   u263_22 0139                   u271_23 0245  
                 u263_23 0140                   u248_20 0756                   u280_20 02D9  
                 u272_20 025F                   u256_20 0078                   u248_21 0755  
                 u280_21 02D8                   u264_21 014E                   u256_21 0077  
                 u264_22 0155                   u264_23 015C                   u184_25 0A27  
                 u272_25 025A                   u249_20 0765                   u185_20 0A34  
                 u281_20 02DE                   u257_20 007E                   u185_21 0A33  
                 u281_21 02DD                   u273_21 026B                   u257_21 007D  
                 u273_22 0272                   u273_23 0279                   u249_25 0760  
                 u265_25 015E                   u282_20 02F2                   u274_20 0287  
                 u258_20 0083                   u290_20 0CA3                   u282_21 02F1  
                 u266_21 0182                   u258_21 0082                   u290_21 0CA2  
                 u266_22 0189                   u266_23 0190                   u186_25 07CB  
                 u274_25 0282                   u187_20 07E5                   u283_20 02F9  
                 u259_20 009A                   u291_20 0CA7                   u187_21 07E4  
                 u283_21 02F8                   u275_21 0293                   u267_21 01AD  
                 u259_21 0099                   u291_21 0CA6                   u275_22 029A  
                 u267_22 01B4                   u275_23 02A1                   u267_23 01BB  
                 u284_20 02FF                   u292_20 0CC7                   u284_21 02FE  
                 u292_21 0CC6                   u276_25 02A3                   u268_25 01BD  
                 u285_20 0311                   u285_21 0310                   u269_21 01E1  
                 u269_22 01E8                   u269_23 01EF                   u277_25 02BA  
                 u293_25 0CD8                   u286_20 0320                   u278_20 02C5  
                 u294_20 0CE6                   u278_21 02C4                   u294_21 0CE5  
                 u286_25 031B                   u287_20 033D                   u287_21 033C  
                 u287_25 0339                   u279_25 02C8                   u295_25 0CFA  
                 u288_20 0357                   u296_20 0D08                   u288_21 0356  
                 u296_21 0D07                   u288_25 0353                   u289_20 0373  
                 u289_21 0372                   u297_25 0D0D                   u298_20 0D18  
                 u298_21 0D17                   u299_20 0D1E                   u299_21 0D1D  
       __end_of___xxtofl 0D55                ??___fldiv 0028                ??___awdiv 00A4  
              ??___awmod 00AC                ??___flmul 0042                ??___fltol 0058  
                 _buffer 00BA          ADC_Read@channel 0074         ___awdiv@quotient 00A6  
        ___awmod@divisor 00A8          ___awmod@counter 00AC                   _turnON 00B8  
              ?_ADC_Init 0070                ?_ADC_Read 0070                   saved_w 007E  
           ___xxtofl@arg 007A             ___xxtofl@exp 0079             ___xxtofl@val 0070  
__end_of__initialization 003D                ?_LCD_Init 00A6                ?_LCD_putc 0070  
             ___fltol@f1 0054           __pcstackCOMMON 0070             __pidataBANK0 09F1  
           __pidataBANK1 09F3                LCD_putc@c 00A5               ??_ADC_Init 00A0  
             ??_ADC_Read 0072        __end_of_InterrupT 1000               __pbssBANK0 0062  
             __pbssBANK1 00BC               ??_LCD_Init 00AB               ??_LCD_putc 00A3  
      __end_of__Umul8_16 0A39               __pmaintext 0386               __pintentry 0004  
                _LCD_Out 0E1B                ?___xxtofl 0070               __stringtab 0800  
                ___fldiv 05F2                  ___awdiv 0B1A                  ___awmod 0A62  
                ___flmul 0041                  ___fltol 0B83                  __ptext1 0A62  
                __ptext2 0B1A                  __ptext3 0A39                  __ptext4 0BFB  
                __ptext5 0D55                  __ptext6 0ABD                  __ptext7 0E1B  
                __ptext8 09FC                  __ptext9 0EE3               ??___xxtofl 0074  
       ___awmod@dividend 00AA                  main@cmd 00B1                _LCD_Write 0ABD  
   end_of_initialization 003D                _LCD_putrs 0A39                _PORTBbits 0006  
              _PORTCbits 0007                _PORTDbits 0008            ___xxtofl@sign 0078  
            ___fldiv@grs 0034              ___fldiv@rem 002D               ?_LCD_Write 0070  
             ?_LCD_putrs 0070              ___flmul@grs 0048               LCD_Write@c 00A5  
    start_initialization 0013           _sensingCounter 0066               LCD_putrs@a 00A8  
             LCD_putrs@i 00A6                _InterrupT 0EE3                _SetMoistL 00BE  
              _SetMoistR 00C0               init_fetch0 07EC                __Umul8_16 0A12  
            __pdataBANK0 0068              __pdataBANK1 00B3                ___fldiv@a 0020  
              ___fldiv@b 0024                 ?_LCD_Out 0070                ___flmul@a 003E  
              ___flmul@b 003A                ___latbits 0002            __pcstackBANK0 0020  
          __pcstackBANK1 00A0                 LCD_Out@c 00A2            _screenCounter 0064  
            ??_LCD_Write 00A3               ?_InterrupT 0070              ??_LCD_putrs 00A6  
               ?___fldiv 0020                 ?___awdiv 00A0                 ?___awmod 00A8  
               ?___flmul 003A                 ?___fltol 0054               ?__Umul8_16 0070  
              __pstrings 0800                 _ADC_Init 09FC                 _ADC_Read 07C1  
      interrupt_function 0004                 _LCD_Init 0D55                 _LCD_putc 0BFB  
               _GO_nDONE 00FA               _ADCON0bits 001F              __stringbase 0805  
             _ADCON1bits 009F              ??_InterrupT 005E                 _SetMoist 0068  
            ??__Umul8_16 0072       __end_of__stringtab 0806                 ___xxtofl 0C9D  
               __ptext10 0C9D                 __ptext11 0B83                 __ptext12 0041  
               __ptext13 0A12                 __ptext14 05F2                 __ptext15 07C1  
               _getMoist 0062               _INTCONbits 000B                 init_ram0 07F0  
               intlevel1 0000                stringcode 0800   __Umul8_16@multiplicand 0070  
             _OPTION_REG 0081                 stringdir 0800                 stringtab 0800  
   __Umul8_16@multiplier 0078        __Umul8_16@product 0074  
